---
triple:          'arm64-apple-darwin'
binary-path:     main
relocations:
  - { offsetInCU: 0x44, offset: 0x44, size: 0x8, addend: 0x0, symName: __ZN7helpers8keyboardE, symObjAddr: 0x461C0, symBinAddr: 0x100010000, symSize: 0x0 }
  - { offsetInCU: 0x5D, offset: 0x5D, size: 0x8, addend: 0x0, symName: __ZN7helpers5deltaE, symObjAddr: 0x461C8, symBinAddr: 0x100010008, symSize: 0x0 }
  - { offsetInCU: 0x6A, offset: 0x6A, size: 0x8, addend: 0x0, symName: __ZN7helpers9cosDegreeEf, symObjAddr: 0x0, symBinAddr: 0x100002E0C, symSize: 0x4C }
  - { offsetInCU: 0xA4, offset: 0xA4, size: 0x8, addend: 0x0, symName: __ZN7helpers9sinDegreeEf, symObjAddr: 0x70, symBinAddr: 0x100002E7C, symSize: 0x4C }
  - { offsetInCU: 0xDE, offset: 0xDE, size: 0x8, addend: 0x0, symName: __ZN7helpers10asinDegreeEf, symObjAddr: 0xE0, symBinAddr: 0x100002EEC, symSize: 0x4C }
  - { offsetInCU: 0x118, offset: 0x118, size: 0x8, addend: 0x0, symName: __ZN7helpers10atanDegreeEf, symObjAddr: 0x150, symBinAddr: 0x100002F5C, symSize: 0x4C }
  - { offsetInCU: 0x152, offset: 0x152, size: 0x8, addend: 0x0, symName: __ZN7helpers12findDistanceEffff, symObjAddr: 0x1C0, symBinAddr: 0x100002FCC, symSize: 0x6C }
  - { offsetInCU: 0x1A8, offset: 0x1A8, size: 0x8, addend: 0x0, symName: __ZN7helpers6pythagEff, symObjAddr: 0x268, symBinAddr: 0x100003074, symSize: 0x54 }
  - { offsetInCU: 0xB07, offset: 0xB07, size: 0x8, addend: 0x0, symName: __ZNSt3__16chronomiB8ue170006IxNS_5ratioILl1ELl1000000EEExS3_EENS_11common_typeIJNS0_8durationIT_T0_EENS5_IT1_T2_EEEE4typeERKS8_RKSB_, symObjAddr: 0x6430, symBinAddr: 0x10000923C, symSize: 0x70 }
  - { offsetInCU: 0xF33, offset: 0xF33, size: 0x8, addend: 0x0, symName: __ZNSt3__16chronomiB8ue170006INS0_12system_clockENS0_8durationIxNS_5ratioILl1ELl1000000EEEEES6_EENS_11common_typeIJT0_T1_EE4typeERKNS0_10time_pointIT_S8_EERKNSC_ISD_S9_EE, symObjAddr: 0x5D88, symBinAddr: 0x100008B94, symSize: 0x58 }
  - { offsetInCU: 0xF8B, offset: 0xF8B, size: 0x8, addend: 0x0, symName: __ZNSt3__16chrono13duration_castB8ue170006INS0_8durationIdNS_5ratioILl1ELl1EEEEExNS3_ILl1ELl1000000EEEEENS_9enable_ifIXsr13__is_durationIT_EE5valueES8_E4typeERKNS2_IT0_T1_EE, symObjAddr: 0x6520, symBinAddr: 0x10000932C, symSize: 0x30 }
  - { offsetInCU: 0x6DC4, offset: 0x6DC4, size: 0x8, addend: 0x0, symName: __ZNSt3__17advanceB8ue170006IP10SDL_FPointllvEEvRT_T0_, symObjAddr: 0x569C, symBinAddr: 0x1000084A8, symSize: 0x38 }
  - { offsetInCU: 0x80C5, offset: 0x80C5, size: 0x8, addend: 0x0, symName: __ZNSt3__112__to_addressB8ue170006I4BallEEPT_S3_, symObjAddr: 0x1000, symBinAddr: 0x100003E0C, symSize: 0x14 }
  - { offsetInCU: 0x80FA, offset: 0x80FA, size: 0x8, addend: 0x0, symName: __ZNSt3__122__make_exception_guardB8ue170006INS_6vectorI10SDL_FPointNS_9allocatorIS2_EEE16__destroy_vectorEEENS_28__exception_guard_exceptionsIT_EES8_, symObjAddr: 0x142C, symBinAddr: 0x100004238, symSize: 0x40 }
  - { offsetInCU: 0x812F, offset: 0x812F, size: 0x8, addend: 0x0, symName: __ZNSt3__119__allocate_at_leastB8ue170006INS_9allocatorI10SDL_FPointEEEENS_19__allocation_resultINS_16allocator_traitsIT_E7pointerEEERS6_m, symObjAddr: 0x1730, symBinAddr: 0x10000453C, symSize: 0x40 }
  - { offsetInCU: 0x8172, offset: 0x8172, size: 0x8, addend: 0x0, symName: __ZNSt3__13minB8ue170006ImEERKT_S3_S3_, symObjAddr: 0x186C, symBinAddr: 0x100004678, symSize: 0x2C }
  - { offsetInCU: 0x83B6, offset: 0x83B6, size: 0x8, addend: 0x0, symName: __ZNSt3__13minB8ue170006ImNS_6__lessIvvEEEERKT_S5_S5_T0_, symObjAddr: 0x18D0, symBinAddr: 0x1000046DC, symSize: 0x54 }
  - { offsetInCU: 0x8455, offset: 0x8455, size: 0x8, addend: 0x0, symName: __ZNSt3__120__throw_length_errorB8ue170006EPKc, symObjAddr: 0x1974, symBinAddr: 0x100004780, symSize: 0x64 }
  - { offsetInCU: 0x847F, offset: 0x847F, size: 0x8, addend: 0x0, symName: __ZNSt3__130__libcpp_is_constant_evaluatedB8ue170006Ev, symObjAddr: 0x1B10, symBinAddr: 0x10000491C, symSize: 0xC }
  - { offsetInCU: 0x849C, offset: 0x849C, size: 0x8, addend: 0x0, symName: __ZNSt3__117__libcpp_allocateB8ue170006Emm, symObjAddr: 0x1B1C, symBinAddr: 0x100004928, symSize: 0x28 }
  - { offsetInCU: 0x84D9, offset: 0x84D9, size: 0x8, addend: 0x0, symName: __ZNSt3__121__libcpp_operator_newB8ue170006IJmEEEPvDpT_, symObjAddr: 0x1B44, symBinAddr: 0x100004950, symSize: 0x24 }
  - { offsetInCU: 0x8512, offset: 0x8512, size: 0x8, addend: 0x0, symName: __ZNSt3__112__to_addressB8ue170006I10SDL_FPointEEPT_S3_, symObjAddr: 0x1C60, symBinAddr: 0x100004A6C, symSize: 0x14 }
  - { offsetInCU: 0x8547, offset: 0x8547, size: 0x8, addend: 0x0, symName: __ZNSt3__130__uninitialized_allocator_copyB8ue170006INS_9allocatorI10SDL_FPointEEPS2_S4_S4_EET2_RT_T0_T1_S5_, symObjAddr: 0x1D10, symBinAddr: 0x100004B1C, symSize: 0x80 }
  - { offsetInCU: 0x85E4, offset: 0x85E4, size: 0x8, addend: 0x0, symName: __ZNSt3__114__unwrap_rangeB8ue170006IP10SDL_FPointS2_EENS_4pairIT0_S4_EET_S6_, symObjAddr: 0x1E00, symBinAddr: 0x100004C0C, symSize: 0x60 }
  - { offsetInCU: 0x8630, offset: 0x8630, size: 0x8, addend: 0x0, symName: __ZNSt3__135__uninitialized_allocator_copy_implB8ue170006INS_9allocatorI10SDL_FPointEEPS2_S4_S4_EET2_RT_T0_T1_S5_, symObjAddr: 0x1E60, symBinAddr: 0x100004C6C, symSize: 0xFC }
  - { offsetInCU: 0x86CE, offset: 0x86CE, size: 0x8, addend: 0x0, symName: __ZNSt3__113__unwrap_iterB8ue170006IP10SDL_FPointNS_18__unwrap_iter_implIS2_Lb1EEELi0EEEDTclsrT0_8__unwrapclsr3stdE7declvalIT_EEEES6_, symObjAddr: 0x1F5C, symBinAddr: 0x100004D68, symSize: 0x24 }
  - { offsetInCU: 0x8712, offset: 0x8712, size: 0x8, addend: 0x0, symName: __ZNSt3__113__rewrap_iterB8ue170006IP10SDL_FPointS2_NS_18__unwrap_iter_implIS2_Lb1EEEEET_S5_T0_, symObjAddr: 0x1F80, symBinAddr: 0x100004D8C, symSize: 0x50 }
  - { offsetInCU: 0x8767, offset: 0x8767, size: 0x8, addend: 0x0, symName: __ZNSt3__19make_pairB8ue170006IP10SDL_FPointS2_EENS_4pairINS_18__unwrap_ref_decayIT_E4typeENS4_IT0_E4typeEEEOS5_OS8_, symObjAddr: 0x1FD0, symBinAddr: 0x100004DDC, symSize: 0x38 }
  - { offsetInCU: 0x8863, offset: 0x8863, size: 0x8, addend: 0x0, symName: __ZNSt3__122__make_exception_guardB8ue170006INS_29_AllocatorDestroyRangeReverseINS_9allocatorI10SDL_FPointEEPS3_EEEENS_28__exception_guard_exceptionsIT_EES8_, symObjAddr: 0x2078, symBinAddr: 0x100004E84, symSize: 0x4C }
  - { offsetInCU: 0x8899, offset: 0x8899, size: 0x8, addend: 0x0, symName: __ZNSt3__119__allocator_destroyB8ue170006INS_9allocatorI10SDL_FPointEENS_16reverse_iteratorIPS2_EES6_EEvRT_T0_T1_, symObjAddr: 0x22F8, symBinAddr: 0x100005104, symSize: 0x70 }
  - { offsetInCU: 0x88FC, offset: 0x88FC, size: 0x8, addend: 0x0, symName: __ZNSt3__1neB8ue170006IP10SDL_FPointS2_EEbRKNS_16reverse_iteratorIT_EERKNS3_IT0_EE, symObjAddr: 0x239C, symBinAddr: 0x1000051A8, symSize: 0x48 }
  - { offsetInCU: 0x8948, offset: 0x8948, size: 0x8, addend: 0x0, symName: __ZNSt3__112__to_addressB8ue170006INS_16reverse_iteratorIP10SDL_FPointEEvEEu7__decayIDTclsr19__to_address_helperIT_EE6__callclsr3stdE7declvalIRKS5_EEEEES7_, symObjAddr: 0x2410, symBinAddr: 0x10000521C, symSize: 0x24 }
  - { offsetInCU: 0x89FA, offset: 0x89FA, size: 0x8, addend: 0x0, symName: __ZNSt3__119__libcpp_deallocateB8ue170006EPvmm, symObjAddr: 0x28D0, symBinAddr: 0x1000056DC, symSize: 0x30 }
  - { offsetInCU: 0x8A42, offset: 0x8A42, size: 0x8, addend: 0x0, symName: __ZNSt3__127__do_deallocate_handle_sizeB8ue170006IJEEEvPvmDpT_, symObjAddr: 0x2900, symBinAddr: 0x10000570C, symSize: 0x28 }
  - { offsetInCU: 0x8A80, offset: 0x8A80, size: 0x8, addend: 0x0, symName: __ZNSt3__124__libcpp_operator_deleteB8ue170006IJPvEEEvDpT_, symObjAddr: 0x2928, symBinAddr: 0x100005734, symSize: 0x24 }
  - { offsetInCU: 0x8AB5, offset: 0x8AB5, size: 0x8, addend: 0x0, symName: __ZNSt3__13maxB8ue170006ImEERKT_S3_S3_, symObjAddr: 0x2CD0, symBinAddr: 0x100005ADC, symSize: 0x2C }
  - { offsetInCU: 0x8AF8, offset: 0x8AF8, size: 0x8, addend: 0x0, symName: __ZNSt3__13maxB8ue170006ImNS_6__lessIvvEEEERKT_S5_S5_T0_, symObjAddr: 0x2DF8, symBinAddr: 0x100005C04, symSize: 0x54 }
  - { offsetInCU: 0x8B52, offset: 0x8B52, size: 0x8, addend: 0x0, symName: __ZNSt3__119__allocate_at_leastB8ue170006INS_9allocatorI4BallEEEENS_19__allocation_resultINS_16allocator_traitsIT_E7pointerEEERS6_m, symObjAddr: 0x2F68, symBinAddr: 0x100005D74, symSize: 0x40 }
  - { offsetInCU: 0x8B95, offset: 0x8B95, size: 0x8, addend: 0x0, symName: __ZNSt3__142__uninitialized_allocator_move_if_noexceptB8ue170006INS_9allocatorI4BallEENS_16reverse_iteratorIPS2_EES6_S6_EET2_RT_T0_T1_S7_, symObjAddr: 0x3224, symBinAddr: 0x100006030, symSize: 0x134 }
  - { offsetInCU: 0x8C35, offset: 0x8C35, size: 0x8, addend: 0x0, symName: __ZNSt3__14swapB8ue170006IP4BallEEvRT_S4_, symObjAddr: 0x33A4, symBinAddr: 0x1000061B0, symSize: 0x3C }
  - { offsetInCU: 0x8C86, offset: 0x8C86, size: 0x8, addend: 0x0, symName: __ZNSt3__122__make_exception_guardB8ue170006INS_29_AllocatorDestroyRangeReverseINS_9allocatorI4BallEENS_16reverse_iteratorIPS3_EEEEEENS_28__exception_guard_exceptionsIT_EESA_, symObjAddr: 0x34F0, symBinAddr: 0x1000062FC, symSize: 0x4C }
  - { offsetInCU: 0x8CBC, offset: 0x8CBC, size: 0x8, addend: 0x0, symName: __ZNSt3__1neB8ue170006IP4BallS2_EEbRKNS_16reverse_iteratorIT_EERKNS3_IT0_EE, symObjAddr: 0x3580, symBinAddr: 0x10000638C, symSize: 0x48 }
  - { offsetInCU: 0x8D08, offset: 0x8D08, size: 0x8, addend: 0x0, symName: __ZNSt3__112__to_addressB8ue170006INS_16reverse_iteratorIP4BallEEvEEu7__decayIDTclsr19__to_address_helperIT_EE6__callclsr3stdE7declvalIRKS5_EEEEES7_, symObjAddr: 0x35FC, symBinAddr: 0x100006408, symSize: 0x24 }
  - { offsetInCU: 0x8D67, offset: 0x8D67, size: 0x8, addend: 0x0, symName: __ZNSt3__119__allocator_destroyB8ue170006INS_9allocatorI4BallEENS_16reverse_iteratorINS4_IPS2_EEEES7_EEvRT_T0_T1_, symObjAddr: 0x38E8, symBinAddr: 0x1000066F4, symSize: 0x70 }
  - { offsetInCU: 0x8DCC, offset: 0x8DCC, size: 0x8, addend: 0x0, symName: __ZNSt3__1neB8ue170006INS_16reverse_iteratorIP4BallEES4_EEbRKNS1_IT_EERKNS1_IT0_EE, symObjAddr: 0x3994, symBinAddr: 0x1000067A0, symSize: 0x60 }
  - { offsetInCU: 0x8E18, offset: 0x8E18, size: 0x8, addend: 0x0, symName: __ZNSt3__112__to_addressB8ue170006INS_16reverse_iteratorINS1_IP4BallEEEEvEEu7__decayIDTclsr19__to_address_helperIT_EE6__callclsr3stdE7declvalIRKS6_EEEEES8_, symObjAddr: 0x3A20, symBinAddr: 0x10000682C, symSize: 0x24 }
  - { offsetInCU: 0x8E77, offset: 0x8E77, size: 0x8, addend: 0x0, symName: __ZNSt3__142__uninitialized_allocator_move_if_noexceptB8ue170006INS_9allocatorI10SDL_FPointEENS_16reverse_iteratorIPS2_EES6_S2_vEET1_RT_T0_SA_S7_, symObjAddr: 0x49B8, symBinAddr: 0x1000077C4, symSize: 0xE8 }
  - { offsetInCU: 0x8EF4, offset: 0x8EF4, size: 0x8, addend: 0x0, symName: __ZNSt3__14swapB8ue170006IP10SDL_FPointEEvRT_S4_, symObjAddr: 0x4AA0, symBinAddr: 0x1000078AC, symSize: 0x3C }
  - { offsetInCU: 0x8F6A, offset: 0x8F6A, size: 0x8, addend: 0x0, symName: __ZNSt3__114__construct_atB8ue170006I10SDL_FPointJS1_EPS1_EEPT_S4_DpOT0_, symObjAddr: 0x4ADC, symBinAddr: 0x1000078E8, symSize: 0x2C }
  - { offsetInCU: 0x8FDA, offset: 0x8FDA, size: 0x8, addend: 0x0, symName: __ZNSt3__14moveB8ue170006INS_16reverse_iteratorIP10SDL_FPointEES4_EET0_T_S6_S5_, symObjAddr: 0x4B08, symBinAddr: 0x100007914, symSize: 0x78 }
  - { offsetInCU: 0x9034, offset: 0x9034, size: 0x8, addend: 0x0, symName: __ZNSt3__16__moveB8ue170006INS_17_ClassicAlgPolicyENS_16reverse_iteratorIP10SDL_FPointEES5_S5_EENS_4pairIT0_T2_EES7_T1_S8_, symObjAddr: 0x4B80, symBinAddr: 0x10000798C, symSize: 0x64 }
  - { offsetInCU: 0x90A0, offset: 0x90A0, size: 0x8, addend: 0x0, symName: __ZNSt3__123__dispatch_copy_or_moveB8ue170006INS_17_ClassicAlgPolicyENS_11__move_loopIS1_EENS_14__move_trivialENS_16reverse_iteratorIP10SDL_FPointEES8_S8_EENS_4pairIT2_T4_EESA_T3_SB_, symObjAddr: 0x4BE4, symBinAddr: 0x1000079F0, symSize: 0x64 }
  - { offsetInCU: 0x911E, offset: 0x911E, size: 0x8, addend: 0x0, symName: __ZNSt3__121__unwrap_and_dispatchB8ue170006INS_10__overloadINS_11__move_loopINS_17_ClassicAlgPolicyEEENS_14__move_trivialEEENS_16reverse_iteratorIP10SDL_FPointEESA_SA_Li0EEENS_4pairIT0_T2_EESC_T1_SD_, symObjAddr: 0x4C48, symBinAddr: 0x100007A54, symSize: 0x12C }
  - { offsetInCU: 0x91AE, offset: 0x91AE, size: 0x8, addend: 0x0, symName: __ZNSt3__114__unwrap_rangeB8ue170006INS_16reverse_iteratorIP10SDL_FPointEES4_EENS_4pairIT0_S6_EET_S8_, symObjAddr: 0x4D74, symBinAddr: 0x100007B80, symSize: 0x84 }
  - { offsetInCU: 0x9341, offset: 0x9341, size: 0x8, addend: 0x0, symName: __ZNSt3__113__unwrap_iterB8ue170006INS_16reverse_iteratorIP10SDL_FPointEENS_18__unwrap_iter_implIS4_Lb0EEELi0EEEDTclsrT0_8__unwrapclsr3stdE7declvalIT_EEEES8_, symObjAddr: 0x4E98, symBinAddr: 0x100007CA4, symSize: 0x44 }
  - { offsetInCU: 0x9385, offset: 0x9385, size: 0x8, addend: 0x0, symName: __ZNSt3__19make_pairB8ue170006INS_16reverse_iteratorIP10SDL_FPointEES4_EENS_4pairINS_18__unwrap_ref_decayIT_E4typeENS6_IT0_E4typeEEEOS7_OSA_, symObjAddr: 0x4EDC, symBinAddr: 0x100007CE8, symSize: 0x38 }
  - { offsetInCU: 0x93D4, offset: 0x93D4, size: 0x8, addend: 0x0, symName: __ZNSt3__114__rewrap_rangeB8ue170006INS_16reverse_iteratorIP10SDL_FPointEES4_EET_S5_T0_, symObjAddr: 0x4F14, symBinAddr: 0x100007D20, symSize: 0x5C }
  - { offsetInCU: 0x9420, offset: 0x9420, size: 0x8, addend: 0x0, symName: __ZNSt3__113__rewrap_iterB8ue170006INS_16reverse_iteratorIP10SDL_FPointEES4_NS_18__unwrap_iter_implIS4_Lb0EEEEET_S7_T0_, symObjAddr: 0x4F70, symBinAddr: 0x100007D7C, symSize: 0x88 }
  - { offsetInCU: 0x957D, offset: 0x957D, size: 0x8, addend: 0x0, symName: __ZNSt3__18distanceB8ue170006IP10SDL_FPointEENS_15iterator_traitsIT_E15difference_typeES4_S4_, symObjAddr: 0x54D8, symBinAddr: 0x1000082E4, symSize: 0x2C }
  - { offsetInCU: 0x95C0, offset: 0x95C0, size: 0x8, addend: 0x0, symName: __ZNSt3__14nextB8ue170006IP10SDL_FPointEENS_9enable_ifIXsr29__has_input_iterator_categoryIT_EE5valueES4_E4typeES4_NS_15iterator_traitsIS4_E15difference_typeE, symObjAddr: 0x5504, symBinAddr: 0x100008310, symSize: 0x34 }
  - { offsetInCU: 0x9603, offset: 0x9603, size: 0x8, addend: 0x0, symName: __ZNSt3__14copyB8ue170006IP10SDL_FPointS2_EET0_T_S4_S3_, symObjAddr: 0x5538, symBinAddr: 0x100008344, symSize: 0x40 }
  - { offsetInCU: 0x965D, offset: 0x965D, size: 0x8, addend: 0x0, symName: __ZNSt3__16__copyB8ue170006INS_17_ClassicAlgPolicyEP10SDL_FPointS3_S3_EENS_4pairIT0_T2_EES5_T1_S6_, symObjAddr: 0x5578, symBinAddr: 0x100008384, symSize: 0x44 }
  - { offsetInCU: 0x96C9, offset: 0x96C9, size: 0x8, addend: 0x0, symName: __ZNSt3__121__convert_to_integralB8ue170006El, symObjAddr: 0x56D4, symBinAddr: 0x1000084E0, symSize: 0x14 }
  - { offsetInCU: 0x96F5, offset: 0x96F5, size: 0x8, addend: 0x0, symName: __ZNSt3__19__advanceB8ue170006IP10SDL_FPointEEvRT_NS_15iterator_traitsIS3_E15difference_typeENS_26random_access_iterator_tagE, symObjAddr: 0x56E8, symBinAddr: 0x1000084F4, symSize: 0x28 }
  - { offsetInCU: 0x973E, offset: 0x973E, size: 0x8, addend: 0x0, symName: __ZNSt3__123__dispatch_copy_or_moveB8ue170006INS_17_ClassicAlgPolicyENS_11__copy_loopIS1_EENS_14__copy_trivialEP10SDL_FPointS6_S6_EENS_4pairIT2_T4_EES8_T3_S9_, symObjAddr: 0x5710, symBinAddr: 0x10000851C, symSize: 0x44 }
  - { offsetInCU: 0x97BC, offset: 0x97BC, size: 0x8, addend: 0x0, symName: __ZNSt3__121__unwrap_and_dispatchB8ue170006INS_10__overloadINS_11__copy_loopINS_17_ClassicAlgPolicyEEENS_14__copy_trivialEEEP10SDL_FPointS8_S8_Li0EEENS_4pairIT0_T2_EESA_T1_SB_, symObjAddr: 0x5754, symBinAddr: 0x100008560, symSize: 0xB4 }
  - { offsetInCU: 0x9890, offset: 0x9890, size: 0x8, addend: 0x0, symName: __ZNSt3__114__rewrap_rangeB8ue170006IP10SDL_FPointS2_EET_S3_T0_, symObjAddr: 0x5850, symBinAddr: 0x10000865C, symSize: 0x2C }
  - { offsetInCU: 0x98DC, offset: 0x98DC, size: 0x8, addend: 0x0, symName: __ZNSt3__119__copy_trivial_implB8ue170006I10SDL_FPointS1_EENS_4pairIPT_PT0_EES4_S4_S6_, symObjAddr: 0x587C, symBinAddr: 0x100008688, symSize: 0x80 }
  - { offsetInCU: 0x9944, offset: 0x9944, size: 0x8, addend: 0x0, symName: __ZNSt3__119__constexpr_memmoveB8ue170006I10SDL_FPointS1_Li0EEEPT_S3_PT0_NS_15__element_countE, symObjAddr: 0x58FC, symBinAddr: 0x100008708, symSize: 0xA0 }
  - { offsetInCU: 0x99B2, offset: 0x99B2, size: 0x8, addend: 0x0, symName: __ZNSt3__19make_pairB8ue170006IRP10SDL_FPointS2_EENS_4pairINS_18__unwrap_ref_decayIT_E4typeENS5_IT0_E4typeEEEOS6_OS9_, symObjAddr: 0x599C, symBinAddr: 0x1000087A8, symSize: 0x38 }
  - { offsetInCU: 0x9A01, offset: 0x9A01, size: 0x8, addend: 0x0, symName: __ZNSt3__110__distanceB8ue170006IP10SDL_FPointEENS_15iterator_traitsIT_E15difference_typeES4_S4_NS_26random_access_iterator_tagE, symObjAddr: 0x5ACC, symBinAddr: 0x1000088D8, symSize: 0x28 }
  - { offsetInCU: 0x9A4E, offset: 0x9A4E, size: 0x8, addend: 0x0, symName: __ZNSt3__1miB8ue170006IPK4BallPS1_EENS_11__wrap_iterIT_E15difference_typeERKS7_RKNS5_IT0_EE, symObjAddr: 0x706C, symBinAddr: 0x100009E78, symSize: 0x48 }
  - { offsetInCU: 0x9A9A, offset: 0x9A9A, size: 0x8, addend: 0x0, symName: __ZNSt3__113move_backwardB8ue170006IP4BallS2_EET0_T_S4_S3_, symObjAddr: 0x7674, symBinAddr: 0x10000A480, symSize: 0x40 }
  - { offsetInCU: 0x9AF4, offset: 0x9AF4, size: 0x8, addend: 0x0, symName: __ZNSt3__115__move_backwardB8ue170006INS_17_ClassicAlgPolicyEP4BallS3_S3_EENS_4pairIT0_T2_EES5_T1_S6_, symObjAddr: 0x76B4, symBinAddr: 0x10000A4C0, symSize: 0x44 }
  - { offsetInCU: 0x9B60, offset: 0x9B60, size: 0x8, addend: 0x0, symName: __ZNSt3__123__dispatch_copy_or_moveB8ue170006INS_17_ClassicAlgPolicyENS_20__move_backward_loopIS1_EENS_23__move_backward_trivialEP4BallS6_S6_EENS_4pairIT2_T4_EES8_T3_S9_, symObjAddr: 0x76F8, symBinAddr: 0x10000A504, symSize: 0x44 }
  - { offsetInCU: 0x9BDE, offset: 0x9BDE, size: 0x8, addend: 0x0, symName: __ZNSt3__121__unwrap_and_dispatchB8ue170006INS_10__overloadINS_20__move_backward_loopINS_17_ClassicAlgPolicyEEENS_23__move_backward_trivialEEEP4BallS8_S8_Li0EEENS_4pairIT0_T2_EESA_T1_SB_, symObjAddr: 0x773C, symBinAddr: 0x10000A548, symSize: 0xB4 }
  - { offsetInCU: 0x9C6C, offset: 0x9C6C, size: 0x8, addend: 0x0, symName: __ZNSt3__114__unwrap_rangeB8ue170006IP4BallS2_EENS_4pairIT0_S4_EET_S6_, symObjAddr: 0x77F0, symBinAddr: 0x10000A5FC, symSize: 0x60 }
  - { offsetInCU: 0x9DB7, offset: 0x9DB7, size: 0x8, addend: 0x0, symName: __ZNSt3__113__unwrap_iterB8ue170006IP4BallNS_18__unwrap_iter_implIS2_Lb1EEELi0EEEDTclsrT0_8__unwrapclsr3stdE7declvalIT_EEEES6_, symObjAddr: 0x78F4, symBinAddr: 0x10000A700, symSize: 0x24 }
  - { offsetInCU: 0x9DFB, offset: 0x9DFB, size: 0x8, addend: 0x0, symName: __ZNSt3__19make_pairB8ue170006IP4BallS2_EENS_4pairINS_18__unwrap_ref_decayIT_E4typeENS4_IT0_E4typeEEEOS5_OS8_, symObjAddr: 0x7918, symBinAddr: 0x10000A724, symSize: 0x38 }
  - { offsetInCU: 0x9E4A, offset: 0x9E4A, size: 0x8, addend: 0x0, symName: __ZNSt3__114__rewrap_rangeB8ue170006IP4BallS2_EET_S3_T0_, symObjAddr: 0x7950, symBinAddr: 0x10000A75C, symSize: 0x2C }
  - { offsetInCU: 0x9E96, offset: 0x9E96, size: 0x8, addend: 0x0, symName: __ZNSt3__113__rewrap_iterB8ue170006IP4BallS2_NS_18__unwrap_iter_implIS2_Lb1EEEEET_S5_T0_, symObjAddr: 0x797C, symBinAddr: 0x10000A788, symSize: 0x50 }
  - { offsetInCU: 0x9F62, offset: 0x9F62, size: 0x8, addend: 0x0, symName: __ZNSt3__14moveB8ue170006IP4BallS2_EET0_T_S4_S3_, symObjAddr: 0x7AFC, symBinAddr: 0x10000A908, symSize: 0x40 }
  - { offsetInCU: 0x9FBC, offset: 0x9FBC, size: 0x8, addend: 0x0, symName: __ZNSt3__16__moveB8ue170006INS_17_ClassicAlgPolicyEP4BallS3_S3_EENS_4pairIT0_T2_EES5_T1_S6_, symObjAddr: 0x7BD0, symBinAddr: 0x10000A9DC, symSize: 0x44 }
  - { offsetInCU: 0xA028, offset: 0xA028, size: 0x8, addend: 0x0, symName: __ZNSt3__123__dispatch_copy_or_moveB8ue170006INS_17_ClassicAlgPolicyENS_11__move_loopIS1_EENS_14__move_trivialEP4BallS6_S6_EENS_4pairIT2_T4_EES8_T3_S9_, symObjAddr: 0x7C14, symBinAddr: 0x10000AA20, symSize: 0x44 }
  - { offsetInCU: 0xA0A6, offset: 0xA0A6, size: 0x8, addend: 0x0, symName: __ZNSt3__121__unwrap_and_dispatchB8ue170006INS_10__overloadINS_11__move_loopINS_17_ClassicAlgPolicyEEENS_14__move_trivialEEEP4BallS8_S8_Li0EEENS_4pairIT0_T2_EESA_T1_SB_, symObjAddr: 0x7C58, symBinAddr: 0x10000AA64, symSize: 0xB4 }
  - { offsetInCU: 0xA134, offset: 0xA134, size: 0x8, addend: 0x0, symName: __ZNSt3__18distanceB8ue170006INS_13move_iteratorIP4BallEEEENS_15iterator_traitsIT_E15difference_typeES6_S6_, symObjAddr: 0x7E80, symBinAddr: 0x10000AC8C, symSize: 0x3C }
  - { offsetInCU: 0xA177, offset: 0xA177, size: 0x8, addend: 0x0, symName: __ZNSt3__110__distanceB8ue170006INS_13move_iteratorIP4BallEEEENS_15iterator_traitsIT_E15difference_typeES6_S6_NS_26random_access_iterator_tagE, symObjAddr: 0x7FC8, symBinAddr: 0x10000ADD4, symSize: 0x30 }
  - { offsetInCU: 0xA1C4, offset: 0xA1C4, size: 0x8, addend: 0x0, symName: __ZNSt3__1miB8ue170006IP4BallS2_EENS_13move_iteratorIT_E15difference_typeERKS5_RKNS3_IT0_EE, symObjAddr: 0x7FF8, symBinAddr: 0x10000AE04, symSize: 0x48 }
  - { offsetInCU: 0xA213, offset: 0xA213, size: 0x8, addend: 0x0, symName: __ZNSt3__142__uninitialized_allocator_move_if_noexceptB8ue170006INS_9allocatorI4BallEEPS2_S4_S4_EET2_RT_T0_T1_S5_, symObjAddr: 0x8078, symBinAddr: 0x10000AE84, symSize: 0xFC }
  - { offsetInCU: 0xA2B1, offset: 0xA2B1, size: 0x8, addend: 0x0, symName: __ZNSt3__122__make_exception_guardB8ue170006INS_29_AllocatorDestroyRangeReverseINS_9allocatorI4BallEEPS3_EEEENS_28__exception_guard_exceptionsIT_EES8_, symObjAddr: 0x8174, symBinAddr: 0x10000AF80, symSize: 0x4C }
  - { offsetInCU: 0xA2E7, offset: 0xA2E7, size: 0x8, addend: 0x0, symName: __ZNSt3__119__allocator_destroyB8ue170006INS_9allocatorI4BallEENS_16reverse_iteratorIPS2_EES6_EEvRT_T0_T1_, symObjAddr: 0x8398, symBinAddr: 0x10000B1A4, symSize: 0x70 }
  - { offsetInCU: 0xA634, offset: 0xA634, size: 0x8, addend: 0x0, symName: __ZSt28__throw_bad_array_new_lengthB8ue170006v, symObjAddr: 0x1ADC, symBinAddr: 0x1000048E8, symSize: 0x34 }
  - { offsetInCU: 0xAE7A, offset: 0xAE7A, size: 0x8, addend: 0x0, symName: __ZNSt3__16vectorI4BallNS_9allocatorIS1_EEE26__swap_out_circular_bufferERNS_14__split_bufferIS1_RS3_EE, symObjAddr: 0x2AC4, symBinAddr: 0x1000058D0, symSize: 0x110 }
  - { offsetInCU: 0xAF0B, offset: 0xAF0B, size: 0x8, addend: 0x0, symName: __ZNSt3__16vectorI10SDL_FPointNS_9allocatorIS1_EEE26__swap_out_circular_bufferERNS_14__split_bufferIS1_RS3_EE, symObjAddr: 0x4650, symBinAddr: 0x10000745C, symSize: 0x110 }
  - { offsetInCU: 0xAF7E, offset: 0xAF7E, size: 0x8, addend: 0x0, symName: __ZNKSt3__16chrono15__duration_castINS0_8durationIxNS_5ratioILl1ELl1000000EEEEENS2_IdNS3_ILl1ELl1EEEEES4_Lb1ELb0EEclB8ue170006ERKS5_, symObjAddr: 0x6550, symBinAddr: 0x10000935C, symSize: 0x50 }
  - { offsetInCU: 0xAFBB, offset: 0xAFBB, size: 0x8, addend: 0x0, symName: __Z3powB8ue170006IdiENSt3__19enable_ifIXaasr3std13is_arithmeticIT_EE5valuesr3std13is_arithmeticIT0_EE5valueENS0_9__promoteIS2_S3_vEEE4type4typeES2_S3_, symObjAddr: 0x6868, symBinAddr: 0x100009674, symSize: 0x38 }
  - { offsetInCU: 0xB02F, offset: 0xB02F, size: 0x8, addend: 0x0, symName: __ZNSt3__16vectorI4BallNS_9allocatorIS1_EEE26__swap_out_circular_bufferERNS_14__split_bufferIS1_RS3_EEPS1_, symObjAddr: 0x74C8, symBinAddr: 0x10000A2D4, symSize: 0x14C }
  - { offsetInCU: 0xB0B6, offset: 0xB0B6, size: 0x8, addend: 0x0, symName: __Z3powB8ue170006IfiENSt3__19enable_ifIXaasr3std13is_arithmeticIT_EE5valuesr3std13is_arithmeticIT0_EE5valueENS0_9__promoteIS2_S3_vEEE4type4typeES2_S3_, symObjAddr: 0x22C, symBinAddr: 0x100003038, symSize: 0x3C }
  - { offsetInCU: 0xD3E6, offset: 0xD3E6, size: 0x8, addend: 0x0, symName: __Z3cosB8ue170006f, symObjAddr: 0x4C, symBinAddr: 0x100002E58, symSize: 0x24 }
  - { offsetInCU: 0xD414, offset: 0xD414, size: 0x8, addend: 0x0, symName: __Z3sinB8ue170006f, symObjAddr: 0xBC, symBinAddr: 0x100002EC8, symSize: 0x24 }
  - { offsetInCU: 0xD442, offset: 0xD442, size: 0x8, addend: 0x0, symName: __Z4asinB8ue170006f, symObjAddr: 0x12C, symBinAddr: 0x100002F38, symSize: 0x24 }
  - { offsetInCU: 0xD470, offset: 0xD470, size: 0x8, addend: 0x0, symName: __Z4atanB8ue170006f, symObjAddr: 0x19C, symBinAddr: 0x100002FA8, symSize: 0x24 }
  - { offsetInCU: 0xD49F, offset: 0xD49F, size: 0x8, addend: 0x0, symName: _main, symObjAddr: 0x2BC, symBinAddr: 0x1000030C8, symSize: 0x64 }
  - { offsetInCU: 0xE5FC, offset: 0xE5FC, size: 0x8, addend: 0x0, symName: __ZN6ScreenC1Ev, symObjAddr: 0x320, symBinAddr: 0x10000312C, symSize: 0x2C }
  - { offsetInCU: 0xE624, offset: 0xE624, size: 0x8, addend: 0x0, symName: __ZN6Screen7presentEv, symObjAddr: 0x34C, symBinAddr: 0x100003158, symSize: 0xF8 }
  - { offsetInCU: 0xE664, offset: 0xE664, size: 0x8, addend: 0x0, symName: __ZN6Screen11handleInputEv, symObjAddr: 0x444, symBinAddr: 0x100003250, symSize: 0x210 }
  - { offsetInCU: 0xE6D2, offset: 0xE6D2, size: 0x8, addend: 0x0, symName: __ZN6ScreenD1Ev, symObjAddr: 0x654, symBinAddr: 0x100003460, symSize: 0x2C }
  - { offsetInCU: 0xE6FD, offset: 0xE6FD, size: 0x8, addend: 0x0, symName: __ZN6ScreenC2Ev, symObjAddr: 0x68C, symBinAddr: 0x100003498, symSize: 0x15C }
  - { offsetInCU: 0xE726, offset: 0xE726, size: 0x8, addend: 0x0, symName: __ZNSt3__16chrono10time_pointINS0_12system_clockENS0_8durationIxNS_5ratioILl1ELl1000000EEEEEEC1B8ue170006Ev, symObjAddr: 0x7E8, symBinAddr: 0x1000035F4, symSize: 0x2C }
  - { offsetInCU: 0xE74F, offset: 0xE74F, size: 0x8, addend: 0x0, symName: __ZN13BallContainerC1Ev, symObjAddr: 0x814, symBinAddr: 0x100003620, symSize: 0x2C }
  - { offsetInCU: 0xE778, offset: 0xE778, size: 0x8, addend: 0x0, symName: __ZNSt3__16chrono8durationIdNS_5ratioILl1ELl1EEEEC1B8ue170006Ev, symObjAddr: 0x840, symBinAddr: 0x10000364C, symSize: 0x2C }
  - { offsetInCU: 0xE7A1, offset: 0xE7A1, size: 0x8, addend: 0x0, symName: __ZN13BallContainerD1Ev, symObjAddr: 0x86C, symBinAddr: 0x100003678, symSize: 0x2C }
  - { offsetInCU: 0xE7CC, offset: 0xE7CC, size: 0x8, addend: 0x0, symName: __ZNSt3__16chrono10time_pointINS0_12system_clockENS0_8durationIxNS_5ratioILl1ELl1000000EEEEEEC2B8ue170006Ev, symObjAddr: 0x898, symBinAddr: 0x1000036A4, symSize: 0x34 }
  - { offsetInCU: 0xE7F5, offset: 0xE7F5, size: 0x8, addend: 0x0, symName: __ZNSt3__16chrono8durationIxNS_5ratioILl1ELl1000000EEEE4zeroB8ue170006Ev, symObjAddr: 0x8CC, symBinAddr: 0x1000036D8, symSize: 0x50 }
  - { offsetInCU: 0xE809, offset: 0xE809, size: 0x8, addend: 0x0, symName: __ZNSt3__16chrono15duration_valuesIxE4zeroB8ue170006Ev, symObjAddr: 0x91C, symBinAddr: 0x100003728, symSize: 0x8 }
  - { offsetInCU: 0xE82C, offset: 0xE82C, size: 0x8, addend: 0x0, symName: __ZNSt3__16chrono8durationIxNS_5ratioILl1ELl1000000EEEEC1B8ue170006IxEERKT_PNS_9enable_ifIXaasr14is_convertibleIS8_xEE5valueooL_ZNS_17integral_constantIbLb0EE5valueEEntsr23treat_as_floating_pointIS6_EE5valueEvE4typeE, symObjAddr: 0x924, symBinAddr: 0x100003730, symSize: 0x3C }
  - { offsetInCU: 0xE877, offset: 0xE877, size: 0x8, addend: 0x0, symName: __ZNSt3__16chrono8durationIxNS_5ratioILl1ELl1000000EEEEC2B8ue170006IxEERKT_PNS_9enable_ifIXaasr14is_convertibleIS8_xEE5valueooL_ZNS_17integral_constantIbLb0EE5valueEEntsr23treat_as_floating_pointIS6_EE5valueEvE4typeE, symObjAddr: 0x960, symBinAddr: 0x10000376C, symSize: 0x28 }
  - { offsetInCU: 0xE8C2, offset: 0xE8C2, size: 0x8, addend: 0x0, symName: __ZN13BallContainerC2Ev, symObjAddr: 0x988, symBinAddr: 0x100003794, symSize: 0xA0 }
  - { offsetInCU: 0xE8EB, offset: 0xE8EB, size: 0x8, addend: 0x0, symName: __ZNSt3__16vectorI4BallNS_9allocatorIS1_EEEC1B8ue170006Ev, symObjAddr: 0xA28, symBinAddr: 0x100003834, symSize: 0x2C }
  - { offsetInCU: 0xE913, offset: 0xE913, size: 0x8, addend: 0x0, symName: __ZNSt3__16vectorI4BallNS_9allocatorIS1_EEE9push_backB8ue170006EOS1_, symObjAddr: 0xA54, symBinAddr: 0x100003860, symSize: 0x6C }
  - { offsetInCU: 0xE948, offset: 0xE948, size: 0x8, addend: 0x0, symName: __ZN13BallContainer16createRandomBallEv, symObjAddr: 0xAC0, symBinAddr: 0x1000038CC, symSize: 0x130 }
  - { offsetInCU: 0xE9B4, offset: 0xE9B4, size: 0x8, addend: 0x0, symName: __ZN4BallD1Ev, symObjAddr: 0xBF0, symBinAddr: 0x1000039FC, symSize: 0x2C }
  - { offsetInCU: 0xE9DF, offset: 0xE9DF, size: 0x8, addend: 0x0, symName: __ZNSt3__16vectorI4BallNS_9allocatorIS1_EEED1B8ue170006Ev, symObjAddr: 0xC1C, symBinAddr: 0x100003A28, symSize: 0x2C }
  - { offsetInCU: 0xEA08, offset: 0xEA08, size: 0x8, addend: 0x0, symName: __ZNSt3__16vectorI4BallNS_9allocatorIS1_EEEC2B8ue170006Ev, symObjAddr: 0xC48, symBinAddr: 0x100003A54, symSize: 0x44 }
  - { offsetInCU: 0xEA3B, offset: 0xEA3B, size: 0x8, addend: 0x0, symName: __ZNSt3__117__compressed_pairIP4BallNS_9allocatorIS1_EEEC1B8ue170006IDnNS_18__default_init_tagEEEOT_OT0_, symObjAddr: 0xC8C, symBinAddr: 0x100003A98, symSize: 0x3C }
  - { offsetInCU: 0xEA92, offset: 0xEA92, size: 0x8, addend: 0x0, symName: __ZNSt3__117__compressed_pairIP4BallNS_9allocatorIS1_EEEC2B8ue170006IDnNS_18__default_init_tagEEEOT_OT0_, symObjAddr: 0xCC8, symBinAddr: 0x100003AD4, symSize: 0x40 }
  - { offsetInCU: 0xEAE9, offset: 0xEAE9, size: 0x8, addend: 0x0, symName: __ZNSt3__122__compressed_pair_elemIP4BallLi0ELb0EEC2B8ue170006IDnvEEOT_, symObjAddr: 0xD08, symBinAddr: 0x100003B14, symSize: 0x1C }
  - { offsetInCU: 0xEB2A, offset: 0xEB2A, size: 0x8, addend: 0x0, symName: __ZNSt3__122__compressed_pair_elemINS_9allocatorI4BallEELi1ELb1EEC2B8ue170006ENS_18__default_init_tagE, symObjAddr: 0xD24, symBinAddr: 0x100003B30, symSize: 0x2C }
  - { offsetInCU: 0xEB5D, offset: 0xEB5D, size: 0x8, addend: 0x0, symName: __ZNSt3__19allocatorI4BallEC2B8ue170006Ev, symObjAddr: 0xD50, symBinAddr: 0x100003B5C, symSize: 0x2C }
  - { offsetInCU: 0xEB86, offset: 0xEB86, size: 0x8, addend: 0x0, symName: __ZNSt3__116__non_trivial_ifILb1ENS_9allocatorI4BallEEEC2B8ue170006Ev, symObjAddr: 0xD7C, symBinAddr: 0x100003B88, symSize: 0x14 }
  - { offsetInCU: 0xEBAE, offset: 0xEBAE, size: 0x8, addend: 0x0, symName: __ZNSt3__16vectorI4BallNS_9allocatorIS1_EEE9__end_capB8ue170006Ev, symObjAddr: 0xD90, symBinAddr: 0x100003B9C, symSize: 0x28 }
  - { offsetInCU: 0xEBD2, offset: 0xEBD2, size: 0x8, addend: 0x0, symName: __ZNSt3__16vectorI4BallNS_9allocatorIS1_EEE22__construct_one_at_endB8ue170006IJS1_EEEvDpOT_, symObjAddr: 0xDB8, symBinAddr: 0x100003BC4, symSize: 0x98 }
  - { offsetInCU: 0xEC1F, offset: 0xEC1F, size: 0x8, addend: 0x0, symName: __ZNSt3__16vectorI4BallNS_9allocatorIS1_EEE21__push_back_slow_pathIS1_EEvOT_, symObjAddr: 0xE50, symBinAddr: 0x100003C5C, symSize: 0xE0 }
  - { offsetInCU: 0xEC7B, offset: 0xEC7B, size: 0x8, addend: 0x0, symName: __ZNSt3__117__compressed_pairIP4BallNS_9allocatorIS1_EEE5firstB8ue170006Ev, symObjAddr: 0xF30, symBinAddr: 0x100003D3C, symSize: 0x24 }
  - { offsetInCU: 0xECA0, offset: 0xECA0, size: 0x8, addend: 0x0, symName: __ZNSt3__122__compressed_pair_elemIP4BallLi0ELb0EE5__getB8ue170006Ev, symObjAddr: 0xF54, symBinAddr: 0x100003D60, symSize: 0x14 }
  - { offsetInCU: 0xECDE, offset: 0xECDE, size: 0x8, addend: 0x0, symName: __ZNSt3__16vectorI4BallNS_9allocatorIS1_EEE21_ConstructTransactionC1B8ue170006ERS4_m, symObjAddr: 0xF68, symBinAddr: 0x100003D74, symSize: 0x3C }
  - { offsetInCU: 0xED25, offset: 0xED25, size: 0x8, addend: 0x0, symName: __ZNSt3__116allocator_traitsINS_9allocatorI4BallEEE9constructB8ue170006IS2_JS2_EvEEvRS3_PT_DpOT0_, symObjAddr: 0xFA4, symBinAddr: 0x100003DB0, symSize: 0x34 }
  - { offsetInCU: 0xED7B, offset: 0xED7B, size: 0x8, addend: 0x0, symName: __ZNSt3__16vectorI4BallNS_9allocatorIS1_EEE7__allocB8ue170006Ev, symObjAddr: 0xFD8, symBinAddr: 0x100003DE4, symSize: 0x28 }
  - { offsetInCU: 0xEDA0, offset: 0xEDA0, size: 0x8, addend: 0x0, symName: __ZNSt3__16vectorI4BallNS_9allocatorIS1_EEE21_ConstructTransactionD1B8ue170006Ev, symObjAddr: 0x1014, symBinAddr: 0x100003E20, symSize: 0x2C }
  - { offsetInCU: 0xEDC9, offset: 0xEDC9, size: 0x8, addend: 0x0, symName: __ZNSt3__16vectorI4BallNS_9allocatorIS1_EEE21_ConstructTransactionC2B8ue170006ERS4_m, symObjAddr: 0x1040, symBinAddr: 0x100003E4C, symSize: 0x4C }
  - { offsetInCU: 0xEE0F, offset: 0xEE0F, size: 0x8, addend: 0x0, symName: __ZNSt3__19allocatorI4BallE9constructB8ue170006IS1_JS1_EEEvPT_DpOT0_, symObjAddr: 0x108C, symBinAddr: 0x100003E98, symSize: 0x30 }
  - { offsetInCU: 0xEE64, offset: 0xEE64, size: 0x8, addend: 0x0, symName: __ZN4BallC1ERKS_, symObjAddr: 0x10BC, symBinAddr: 0x100003EC8, symSize: 0x34 }
  - { offsetInCU: 0xEE98, offset: 0xEE98, size: 0x8, addend: 0x0, symName: __ZN4BallC2ERKS_, symObjAddr: 0x10F0, symBinAddr: 0x100003EFC, symSize: 0x68 }
  - { offsetInCU: 0xEECC, offset: 0xEECC, size: 0x8, addend: 0x0, symName: __ZNSt3__16vectorI10SDL_FPointNS_9allocatorIS1_EEEC1ERKS4_, symObjAddr: 0x1158, symBinAddr: 0x100003F64, symSize: 0x34 }
  - { offsetInCU: 0xEF06, offset: 0xEF06, size: 0x8, addend: 0x0, symName: __ZNSt3__16vectorI10SDL_FPointNS_9allocatorIS1_EEEC2ERKS4_, symObjAddr: 0x118C, symBinAddr: 0x100003F98, symSize: 0x94 }
  - { offsetInCU: 0xEF4A, offset: 0xEF4A, size: 0x8, addend: 0x0, symName: __ZNSt3__116allocator_traitsINS_9allocatorI10SDL_FPointEEE37select_on_container_copy_constructionB8ue170006IS3_vvEES3_RKS3_, symObjAddr: 0x1220, symBinAddr: 0x10000402C, symSize: 0x10 }
  - { offsetInCU: 0xEF78, offset: 0xEF78, size: 0x8, addend: 0x0, symName: __ZNKSt3__16vectorI10SDL_FPointNS_9allocatorIS1_EEE7__allocB8ue170006Ev, symObjAddr: 0x1230, symBinAddr: 0x10000403C, symSize: 0x28 }
  - { offsetInCU: 0xEFA2, offset: 0xEFA2, size: 0x8, addend: 0x0, symName: __ZNSt3__117__compressed_pairIP10SDL_FPointNS_9allocatorIS1_EEEC1B8ue170006IDnS4_EEOT_OT0_, symObjAddr: 0x1258, symBinAddr: 0x100004064, symSize: 0x3C }
  - { offsetInCU: 0xEFF8, offset: 0xEFF8, size: 0x8, addend: 0x0, symName: __ZNSt3__16vectorI10SDL_FPointNS_9allocatorIS1_EEE16__init_with_sizeB8ue170006IPS1_S6_EEvT_T0_m, symObjAddr: 0x1294, symBinAddr: 0x1000040A0, symSize: 0xC0 }
  - { offsetInCU: 0xF06B, offset: 0xF06B, size: 0x8, addend: 0x0, symName: __ZNKSt3__16vectorI10SDL_FPointNS_9allocatorIS1_EEE4sizeB8ue170006Ev, symObjAddr: 0x1354, symBinAddr: 0x100004160, symSize: 0x28 }
  - { offsetInCU: 0xF08F, offset: 0xF08F, size: 0x8, addend: 0x0, symName: __ZNKSt3__117__compressed_pairIP10SDL_FPointNS_9allocatorIS1_EEE6secondB8ue170006Ev, symObjAddr: 0x137C, symBinAddr: 0x100004188, symSize: 0x24 }
  - { offsetInCU: 0xF0B4, offset: 0xF0B4, size: 0x8, addend: 0x0, symName: __ZNKSt3__122__compressed_pair_elemINS_9allocatorI10SDL_FPointEELi1ELb1EE5__getB8ue170006Ev, symObjAddr: 0x13A0, symBinAddr: 0x1000041AC, symSize: 0x14 }
  - { offsetInCU: 0xF0D9, offset: 0xF0D9, size: 0x8, addend: 0x0, symName: __ZNSt3__117__compressed_pairIP10SDL_FPointNS_9allocatorIS1_EEEC2B8ue170006IDnS4_EEOT_OT0_, symObjAddr: 0x13B4, symBinAddr: 0x1000041C0, symSize: 0x44 }
  - { offsetInCU: 0xF130, offset: 0xF130, size: 0x8, addend: 0x0, symName: __ZNSt3__122__compressed_pair_elemIP10SDL_FPointLi0ELb0EEC2B8ue170006IDnvEEOT_, symObjAddr: 0x13F8, symBinAddr: 0x100004204, symSize: 0x1C }
  - { offsetInCU: 0xF171, offset: 0xF171, size: 0x8, addend: 0x0, symName: __ZNSt3__122__compressed_pair_elemINS_9allocatorI10SDL_FPointEELi1ELb1EEC2B8ue170006IS3_vEEOT_, symObjAddr: 0x1414, symBinAddr: 0x100004220, symSize: 0x18 }
  - { offsetInCU: 0xF1B2, offset: 0xF1B2, size: 0x8, addend: 0x0, symName: __ZNSt3__16vectorI10SDL_FPointNS_9allocatorIS1_EEE16__destroy_vectorC1B8ue170006ERS4_, symObjAddr: 0x146C, symBinAddr: 0x100004278, symSize: 0x34 }
  - { offsetInCU: 0xF1E9, offset: 0xF1E9, size: 0x8, addend: 0x0, symName: __ZNSt3__16vectorI10SDL_FPointNS_9allocatorIS1_EEE11__vallocateB8ue170006Em, symObjAddr: 0x14A0, symBinAddr: 0x1000042AC, symSize: 0xAC }
  - { offsetInCU: 0xF22B, offset: 0xF22B, size: 0x8, addend: 0x0, symName: __ZNSt3__16vectorI10SDL_FPointNS_9allocatorIS1_EEE18__construct_at_endIPS1_S6_EEvT_T0_m, symObjAddr: 0x154C, symBinAddr: 0x100004358, symSize: 0x94 }
  - { offsetInCU: 0xF2A0, offset: 0xF2A0, size: 0x8, addend: 0x0, symName: __ZNSt3__128__exception_guard_exceptionsINS_6vectorI10SDL_FPointNS_9allocatorIS2_EEE16__destroy_vectorEE10__completeB8ue170006Ev, symObjAddr: 0x15E0, symBinAddr: 0x1000043EC, symSize: 0x1C }
  - { offsetInCU: 0xF2C5, offset: 0xF2C5, size: 0x8, addend: 0x0, symName: __ZNSt3__128__exception_guard_exceptionsINS_6vectorI10SDL_FPointNS_9allocatorIS2_EEE16__destroy_vectorEED1B8ue170006Ev, symObjAddr: 0x15FC, symBinAddr: 0x100004408, symSize: 0x2C }
  - { offsetInCU: 0xF2EE, offset: 0xF2EE, size: 0x8, addend: 0x0, symName: __ZNSt3__128__exception_guard_exceptionsINS_6vectorI10SDL_FPointNS_9allocatorIS2_EEE16__destroy_vectorEEC1B8ue170006ES6_, symObjAddr: 0x1628, symBinAddr: 0x100004434, symSize: 0x34 }
  - { offsetInCU: 0xF325, offset: 0xF325, size: 0x8, addend: 0x0, symName: __ZNSt3__128__exception_guard_exceptionsINS_6vectorI10SDL_FPointNS_9allocatorIS2_EEE16__destroy_vectorEEC2B8ue170006ES6_, symObjAddr: 0x165C, symBinAddr: 0x100004468, symSize: 0x24 }
  - { offsetInCU: 0xF35C, offset: 0xF35C, size: 0x8, addend: 0x0, symName: __ZNSt3__16vectorI10SDL_FPointNS_9allocatorIS1_EEE16__destroy_vectorC2B8ue170006ERS4_, symObjAddr: 0x1680, symBinAddr: 0x10000448C, symSize: 0x20 }
  - { offsetInCU: 0xF393, offset: 0xF393, size: 0x8, addend: 0x0, symName: __ZNKSt3__16vectorI10SDL_FPointNS_9allocatorIS1_EEE8max_sizeEv, symObjAddr: 0x16A0, symBinAddr: 0x1000044AC, symSize: 0x74 }
  - { offsetInCU: 0xF3B9, offset: 0xF3B9, size: 0x8, addend: 0x0, symName: __ZNKSt3__16vectorI10SDL_FPointNS_9allocatorIS1_EEE20__throw_length_errorB8ue170006Ev, symObjAddr: 0x1714, symBinAddr: 0x100004520, symSize: 0x1C }
  - { offsetInCU: 0xF3DD, offset: 0xF3DD, size: 0x8, addend: 0x0, symName: __ZNSt3__16vectorI10SDL_FPointNS_9allocatorIS1_EEE7__allocB8ue170006Ev, symObjAddr: 0x1770, symBinAddr: 0x10000457C, symSize: 0x28 }
  - { offsetInCU: 0xF401, offset: 0xF401, size: 0x8, addend: 0x0, symName: __ZNSt3__16vectorI10SDL_FPointNS_9allocatorIS1_EEE9__end_capB8ue170006Ev, symObjAddr: 0x1798, symBinAddr: 0x1000045A4, symSize: 0x28 }
  - { offsetInCU: 0xF425, offset: 0xF425, size: 0x8, addend: 0x0, symName: __ZNKSt3__16vectorI10SDL_FPointNS_9allocatorIS1_EEE14__annotate_newB8ue170006Em, symObjAddr: 0x17C0, symBinAddr: 0x1000045CC, symSize: 0xAC }
  - { offsetInCU: 0xF459, offset: 0xF459, size: 0x8, addend: 0x0, symName: __ZNSt3__116allocator_traitsINS_9allocatorI10SDL_FPointEEE8max_sizeB8ue170006IS3_vEEmRKS3_, symObjAddr: 0x1898, symBinAddr: 0x1000046A4, symSize: 0x24 }
  - { offsetInCU: 0xF487, offset: 0xF487, size: 0x8, addend: 0x0, symName: __ZNSt3__114numeric_limitsIlE3maxB8ue170006Ev, symObjAddr: 0x18BC, symBinAddr: 0x1000046C8, symSize: 0x14 }
  - { offsetInCU: 0xF4AF, offset: 0xF4AF, size: 0x8, addend: 0x0, symName: __ZNKSt3__16__lessIvvEclB8ue170006ImmEEbRKT_RKT0_, symObjAddr: 0x1924, symBinAddr: 0x100004730, symSize: 0x34 }
  - { offsetInCU: 0xF502, offset: 0xF502, size: 0x8, addend: 0x0, symName: __ZNKSt3__19allocatorI10SDL_FPointE8max_sizeB8ue170006Ev, symObjAddr: 0x1958, symBinAddr: 0x100004764, symSize: 0x14 }
  - { offsetInCU: 0xF527, offset: 0xF527, size: 0x8, addend: 0x0, symName: __ZNSt3__123__libcpp_numeric_limitsIlLb1EE3maxB8ue170006Ev, symObjAddr: 0x196C, symBinAddr: 0x100004778, symSize: 0x8 }
  - { offsetInCU: 0xF53B, offset: 0xF53B, size: 0x8, addend: 0x0, symName: __ZNSt12length_errorC1B8ue170006EPKc, symObjAddr: 0x19D8, symBinAddr: 0x1000047E4, symSize: 0x34 }
  - { offsetInCU: 0xF572, offset: 0xF572, size: 0x8, addend: 0x0, symName: __ZNSt12length_errorC2B8ue170006EPKc, symObjAddr: 0x1A0C, symBinAddr: 0x100004818, symSize: 0x4C }
  - { offsetInCU: 0xF5A8, offset: 0xF5A8, size: 0x8, addend: 0x0, symName: __ZNSt3__19allocatorI10SDL_FPointE8allocateB8ue170006Em, symObjAddr: 0x1A58, symBinAddr: 0x100004864, symSize: 0x84 }
  - { offsetInCU: 0xF5DA, offset: 0xF5DA, size: 0x8, addend: 0x0, symName: __ZNSt3__117__compressed_pairIP10SDL_FPointNS_9allocatorIS1_EEE6secondB8ue170006Ev, symObjAddr: 0x1B68, symBinAddr: 0x100004974, symSize: 0x24 }
  - { offsetInCU: 0xF5FF, offset: 0xF5FF, size: 0x8, addend: 0x0, symName: __ZNSt3__122__compressed_pair_elemINS_9allocatorI10SDL_FPointEELi1ELb1EE5__getB8ue170006Ev, symObjAddr: 0x1B8C, symBinAddr: 0x100004998, symSize: 0x14 }
  - { offsetInCU: 0xF623, offset: 0xF623, size: 0x8, addend: 0x0, symName: __ZNSt3__117__compressed_pairIP10SDL_FPointNS_9allocatorIS1_EEE5firstB8ue170006Ev, symObjAddr: 0x1BA0, symBinAddr: 0x1000049AC, symSize: 0x24 }
  - { offsetInCU: 0xF648, offset: 0xF648, size: 0x8, addend: 0x0, symName: __ZNSt3__122__compressed_pair_elemIP10SDL_FPointLi0ELb0EE5__getB8ue170006Ev, symObjAddr: 0x1BC4, symBinAddr: 0x1000049D0, symSize: 0x14 }
  - { offsetInCU: 0xF66D, offset: 0xF66D, size: 0x8, addend: 0x0, symName: __ZNKSt3__16vectorI10SDL_FPointNS_9allocatorIS1_EEE31__annotate_contiguous_containerB8ue170006EPKvS6_S6_S6_, symObjAddr: 0x1BD8, symBinAddr: 0x1000049E4, symSize: 0x20 }
  - { offsetInCU: 0xF6BD, offset: 0xF6BD, size: 0x8, addend: 0x0, symName: __ZNKSt3__16vectorI10SDL_FPointNS_9allocatorIS1_EEE4dataB8ue170006Ev, symObjAddr: 0x1BF8, symBinAddr: 0x100004A04, symSize: 0x28 }
  - { offsetInCU: 0xF6E1, offset: 0xF6E1, size: 0x8, addend: 0x0, symName: __ZNKSt3__16vectorI10SDL_FPointNS_9allocatorIS1_EEE8capacityB8ue170006Ev, symObjAddr: 0x1C20, symBinAddr: 0x100004A2C, symSize: 0x40 }
  - { offsetInCU: 0xF705, offset: 0xF705, size: 0x8, addend: 0x0, symName: __ZNKSt3__16vectorI10SDL_FPointNS_9allocatorIS1_EEE9__end_capB8ue170006Ev, symObjAddr: 0x1C74, symBinAddr: 0x100004A80, symSize: 0x28 }
  - { offsetInCU: 0xF729, offset: 0xF729, size: 0x8, addend: 0x0, symName: __ZNKSt3__117__compressed_pairIP10SDL_FPointNS_9allocatorIS1_EEE5firstB8ue170006Ev, symObjAddr: 0x1C9C, symBinAddr: 0x100004AA8, symSize: 0x24 }
  - { offsetInCU: 0xF74E, offset: 0xF74E, size: 0x8, addend: 0x0, symName: __ZNKSt3__122__compressed_pair_elemIP10SDL_FPointLi0ELb0EE5__getB8ue170006Ev, symObjAddr: 0x1CC0, symBinAddr: 0x100004ACC, symSize: 0x14 }
  - { offsetInCU: 0xF78C, offset: 0xF78C, size: 0x8, addend: 0x0, symName: __ZNSt3__16vectorI10SDL_FPointNS_9allocatorIS1_EEE21_ConstructTransactionC1B8ue170006ERS4_m, symObjAddr: 0x1CD4, symBinAddr: 0x100004AE0, symSize: 0x3C }
  - { offsetInCU: 0xF7D3, offset: 0xF7D3, size: 0x8, addend: 0x0, symName: __ZNSt3__16vectorI10SDL_FPointNS_9allocatorIS1_EEE21_ConstructTransactionD1B8ue170006Ev, symObjAddr: 0x1D90, symBinAddr: 0x100004B9C, symSize: 0x2C }
  - { offsetInCU: 0xF7FC, offset: 0xF7FC, size: 0x8, addend: 0x0, symName: __ZNSt3__16vectorI10SDL_FPointNS_9allocatorIS1_EEE21_ConstructTransactionC2B8ue170006ERS4_m, symObjAddr: 0x1DBC, symBinAddr: 0x100004BC8, symSize: 0x44 }
  - { offsetInCU: 0xF85C, offset: 0xF85C, size: 0x8, addend: 0x0, symName: __ZNSt3__14pairIP10SDL_FPointS2_EC1B8ue170006ERKS2_S5_, symObjAddr: 0x2008, symBinAddr: 0x100004E14, symSize: 0x3C }
  - { offsetInCU: 0xF8A1, offset: 0xF8A1, size: 0x8, addend: 0x0, symName: __ZNSt3__14pairIP10SDL_FPointS2_EC2B8ue170006ERKS2_S5_, symObjAddr: 0x2044, symBinAddr: 0x100004E50, symSize: 0x34 }
  - { offsetInCU: 0xF8E6, offset: 0xF8E6, size: 0x8, addend: 0x0, symName: __ZNSt3__129_AllocatorDestroyRangeReverseINS_9allocatorI10SDL_FPointEEPS2_EC1B8ue170006ERS3_RS4_S7_, symObjAddr: 0x20C4, symBinAddr: 0x100004ED0, symSize: 0x44 }
  - { offsetInCU: 0xF93C, offset: 0xF93C, size: 0x8, addend: 0x0, symName: __ZNSt3__116allocator_traitsINS_9allocatorI10SDL_FPointEEE9constructB8ue170006IS2_JRS2_EvEEvRS3_PT_DpOT0_, symObjAddr: 0x2108, symBinAddr: 0x100004F14, symSize: 0x34 }
  - { offsetInCU: 0xF993, offset: 0xF993, size: 0x8, addend: 0x0, symName: __ZNSt3__128__exception_guard_exceptionsINS_29_AllocatorDestroyRangeReverseINS_9allocatorI10SDL_FPointEEPS3_EEE10__completeB8ue170006Ev, symObjAddr: 0x213C, symBinAddr: 0x100004F48, symSize: 0x1C }
  - { offsetInCU: 0xF9B8, offset: 0xF9B8, size: 0x8, addend: 0x0, symName: __ZNSt3__128__exception_guard_exceptionsINS_29_AllocatorDestroyRangeReverseINS_9allocatorI10SDL_FPointEEPS3_EEED1B8ue170006Ev, symObjAddr: 0x2158, symBinAddr: 0x100004F64, symSize: 0x2C }
  - { offsetInCU: 0xF9E1, offset: 0xF9E1, size: 0x8, addend: 0x0, symName: __ZNSt3__128__exception_guard_exceptionsINS_29_AllocatorDestroyRangeReverseINS_9allocatorI10SDL_FPointEEPS3_EEEC1B8ue170006ES6_, symObjAddr: 0x2184, symBinAddr: 0x100004F90, symSize: 0x34 }
  - { offsetInCU: 0xFA19, offset: 0xFA19, size: 0x8, addend: 0x0, symName: __ZNSt3__128__exception_guard_exceptionsINS_29_AllocatorDestroyRangeReverseINS_9allocatorI10SDL_FPointEEPS3_EEEC2B8ue170006ES6_, symObjAddr: 0x21B8, symBinAddr: 0x100004FC4, symSize: 0x30 }
  - { offsetInCU: 0xFA51, offset: 0xFA51, size: 0x8, addend: 0x0, symName: __ZNSt3__129_AllocatorDestroyRangeReverseINS_9allocatorI10SDL_FPointEEPS2_EC2B8ue170006ERS3_RS4_S7_, symObjAddr: 0x21E8, symBinAddr: 0x100004FF4, symSize: 0x38 }
  - { offsetInCU: 0xFAA7, offset: 0xFAA7, size: 0x8, addend: 0x0, symName: __ZNSt3__19allocatorI10SDL_FPointE9constructB8ue170006IS1_JRS1_EEEvPT_DpOT0_, symObjAddr: 0x2220, symBinAddr: 0x10000502C, symSize: 0x28 }
  - { offsetInCU: 0xFAFC, offset: 0xFAFC, size: 0x8, addend: 0x0, symName: __ZNSt3__128__exception_guard_exceptionsINS_29_AllocatorDestroyRangeReverseINS_9allocatorI10SDL_FPointEEPS3_EEED2B8ue170006Ev, symObjAddr: 0x2248, symBinAddr: 0x100005054, symSize: 0x48 }
  - { offsetInCU: 0xFB24, offset: 0xFB24, size: 0x8, addend: 0x0, symName: __ZNKSt3__129_AllocatorDestroyRangeReverseINS_9allocatorI10SDL_FPointEEPS2_EclB8ue170006Ev, symObjAddr: 0x2290, symBinAddr: 0x10000509C, symSize: 0x68 }
  - { offsetInCU: 0xFB49, offset: 0xFB49, size: 0x8, addend: 0x0, symName: __ZNSt3__116reverse_iteratorIP10SDL_FPointEC1B8ue170006ES2_, symObjAddr: 0x2368, symBinAddr: 0x100005174, symSize: 0x34 }
  - { offsetInCU: 0xFB80, offset: 0xFB80, size: 0x8, addend: 0x0, symName: __ZNSt3__116allocator_traitsINS_9allocatorI10SDL_FPointEEE7destroyB8ue170006IS2_vEEvRS3_PT_, symObjAddr: 0x23E4, symBinAddr: 0x1000051F0, symSize: 0x2C }
  - { offsetInCU: 0xFBBD, offset: 0xFBBD, size: 0x8, addend: 0x0, symName: __ZNSt3__116reverse_iteratorIP10SDL_FPointEppB8ue170006Ev, symObjAddr: 0x2434, symBinAddr: 0x100005240, symSize: 0x20 }
  - { offsetInCU: 0xFBE2, offset: 0xFBE2, size: 0x8, addend: 0x0, symName: __ZNKSt3__116reverse_iteratorIP10SDL_FPointE4baseB8ue170006Ev, symObjAddr: 0x2454, symBinAddr: 0x100005260, symSize: 0x18 }
  - { offsetInCU: 0xFC07, offset: 0xFC07, size: 0x8, addend: 0x0, symName: __ZNSt3__19allocatorI10SDL_FPointE7destroyB8ue170006EPS1_, symObjAddr: 0x246C, symBinAddr: 0x100005278, symSize: 0x14 }
  - { offsetInCU: 0xFC3F, offset: 0xFC3F, size: 0x8, addend: 0x0, symName: __ZNSt3__119__to_address_helperINS_16reverse_iteratorIP10SDL_FPointEEvE6__callB8ue170006ERKS4_, symObjAddr: 0x2480, symBinAddr: 0x10000528C, symSize: 0x4C }
  - { offsetInCU: 0xFC61, offset: 0xFC61, size: 0x8, addend: 0x0, symName: __ZNKSt3__116reverse_iteratorIP10SDL_FPointEptB8ue170006Ev, symObjAddr: 0x24CC, symBinAddr: 0x1000052D8, symSize: 0x24 }
  - { offsetInCU: 0xFC86, offset: 0xFC86, size: 0x8, addend: 0x0, symName: __ZNKSt3__116reverse_iteratorIP10SDL_FPointEdeB8ue170006Ev, symObjAddr: 0x24F0, symBinAddr: 0x1000052FC, symSize: 0x28 }
  - { offsetInCU: 0xFCB9, offset: 0xFCB9, size: 0x8, addend: 0x0, symName: __ZNSt3__116reverse_iteratorIP10SDL_FPointEC2B8ue170006ES2_, symObjAddr: 0x2518, symBinAddr: 0x100005324, symSize: 0x28 }
  - { offsetInCU: 0xFCF0, offset: 0xFCF0, size: 0x8, addend: 0x0, symName: __ZNSt3__118__unwrap_iter_implIP10SDL_FPointLb1EE8__unwrapB8ue170006ES2_, symObjAddr: 0x2540, symBinAddr: 0x10000534C, symSize: 0x24 }
  - { offsetInCU: 0xFD13, offset: 0xFD13, size: 0x8, addend: 0x0, symName: __ZNSt3__118__unwrap_iter_implIP10SDL_FPointLb1EE8__rewrapB8ue170006ES2_S2_, symObjAddr: 0x2564, symBinAddr: 0x100005370, symSize: 0x50 }
  - { offsetInCU: 0xFD44, offset: 0xFD44, size: 0x8, addend: 0x0, symName: __ZNSt3__16vectorI10SDL_FPointNS_9allocatorIS1_EEE21_ConstructTransactionD2B8ue170006Ev, symObjAddr: 0x25B4, symBinAddr: 0x1000053C0, symSize: 0x20 }
  - { offsetInCU: 0xFD6D, offset: 0xFD6D, size: 0x8, addend: 0x0, symName: __ZNSt3__128__exception_guard_exceptionsINS_6vectorI10SDL_FPointNS_9allocatorIS2_EEE16__destroy_vectorEED2B8ue170006Ev, symObjAddr: 0x25D4, symBinAddr: 0x1000053E0, symSize: 0x48 }
  - { offsetInCU: 0xFD95, offset: 0xFD95, size: 0x8, addend: 0x0, symName: __ZNSt3__16vectorI10SDL_FPointNS_9allocatorIS1_EEE16__destroy_vectorclB8ue170006Ev, symObjAddr: 0x261C, symBinAddr: 0x100005428, symSize: 0x90 }
  - { offsetInCU: 0xFDB9, offset: 0xFDB9, size: 0x8, addend: 0x0, symName: __ZNSt3__16vectorI10SDL_FPointNS_9allocatorIS1_EEE7__clearB8ue170006Ev, symObjAddr: 0x26AC, symBinAddr: 0x1000054B8, symSize: 0x28 }
  - { offsetInCU: 0xFDDD, offset: 0xFDDD, size: 0x8, addend: 0x0, symName: __ZNKSt3__16vectorI10SDL_FPointNS_9allocatorIS1_EEE17__annotate_deleteB8ue170006Ev, symObjAddr: 0x26D4, symBinAddr: 0x1000054E0, symSize: 0xB8 }
  - { offsetInCU: 0xFE02, offset: 0xFE02, size: 0x8, addend: 0x0, symName: __ZNSt3__116allocator_traitsINS_9allocatorI10SDL_FPointEEE10deallocateB8ue170006ERS3_PS2_m, symObjAddr: 0x278C, symBinAddr: 0x100005598, symSize: 0x34 }
  - { offsetInCU: 0xFE43, offset: 0xFE43, size: 0x8, addend: 0x0, symName: __ZNSt3__16vectorI10SDL_FPointNS_9allocatorIS1_EEE22__base_destruct_at_endB8ue170006EPS1_, symObjAddr: 0x27C0, symBinAddr: 0x1000055CC, symSize: 0xA0 }
  - { offsetInCU: 0xFE85, offset: 0xFE85, size: 0x8, addend: 0x0, symName: __ZNSt3__19allocatorI10SDL_FPointE10deallocateB8ue170006EPS1_m, symObjAddr: 0x2860, symBinAddr: 0x10000566C, symSize: 0x70 }
  - { offsetInCU: 0xFEC5, offset: 0xFEC5, size: 0x8, addend: 0x0, symName: __ZNSt3__117__compressed_pairIP4BallNS_9allocatorIS1_EEE6secondB8ue170006Ev, symObjAddr: 0x294C, symBinAddr: 0x100005758, symSize: 0x24 }
  - { offsetInCU: 0xFEEA, offset: 0xFEEA, size: 0x8, addend: 0x0, symName: __ZNSt3__122__compressed_pair_elemINS_9allocatorI4BallEELi1ELb1EE5__getB8ue170006Ev, symObjAddr: 0x2970, symBinAddr: 0x10000577C, symSize: 0x14 }
  - { offsetInCU: 0xFF0F, offset: 0xFF0F, size: 0x8, addend: 0x0, symName: __ZNSt3__16vectorI4BallNS_9allocatorIS1_EEE21_ConstructTransactionD2B8ue170006Ev, symObjAddr: 0x2984, symBinAddr: 0x100005790, symSize: 0x20 }
  - { offsetInCU: 0xFF37, offset: 0xFF37, size: 0x8, addend: 0x0, symName: __ZNKSt3__16vectorI4BallNS_9allocatorIS1_EEE11__recommendB8ue170006Em, symObjAddr: 0x29A4, symBinAddr: 0x1000057B0, symSize: 0xB4 }
  - { offsetInCU: 0xFF8B, offset: 0xFF8B, size: 0x8, addend: 0x0, symName: __ZNKSt3__16vectorI4BallNS_9allocatorIS1_EEE4sizeB8ue170006Ev, symObjAddr: 0x2A58, symBinAddr: 0x100005864, symSize: 0x28 }
  - { offsetInCU: 0xFFB0, offset: 0xFFB0, size: 0x8, addend: 0x0, symName: __ZNSt3__114__split_bufferI4BallRNS_9allocatorIS1_EEEC1EmmS4_, symObjAddr: 0x2A80, symBinAddr: 0x10000588C, symSize: 0x44 }
  - { offsetInCU: 0x10005, offset: 0x10005, size: 0x8, addend: 0x0, symName: __ZNSt3__114__split_bufferI4BallRNS_9allocatorIS1_EEED1Ev, symObjAddr: 0x2BD4, symBinAddr: 0x1000059E0, symSize: 0x2C }
  - { offsetInCU: 0x1002F, offset: 0x1002F, size: 0x8, addend: 0x0, symName: __ZNKSt3__16vectorI4BallNS_9allocatorIS1_EEE8max_sizeEv, symObjAddr: 0x2C00, symBinAddr: 0x100005A0C, symSize: 0x74 }
  - { offsetInCU: 0x10055, offset: 0x10055, size: 0x8, addend: 0x0, symName: __ZNKSt3__16vectorI4BallNS_9allocatorIS1_EEE20__throw_length_errorB8ue170006Ev, symObjAddr: 0x2C74, symBinAddr: 0x100005A80, symSize: 0x1C }
  - { offsetInCU: 0x10079, offset: 0x10079, size: 0x8, addend: 0x0, symName: __ZNKSt3__16vectorI4BallNS_9allocatorIS1_EEE8capacityB8ue170006Ev, symObjAddr: 0x2C90, symBinAddr: 0x100005A9C, symSize: 0x40 }
  - { offsetInCU: 0x100A8, offset: 0x100A8, size: 0x8, addend: 0x0, symName: __ZNSt3__116allocator_traitsINS_9allocatorI4BallEEE8max_sizeB8ue170006IS3_vEEmRKS3_, symObjAddr: 0x2CFC, symBinAddr: 0x100005B08, symSize: 0x24 }
  - { offsetInCU: 0x100D5, offset: 0x100D5, size: 0x8, addend: 0x0, symName: __ZNKSt3__16vectorI4BallNS_9allocatorIS1_EEE7__allocB8ue170006Ev, symObjAddr: 0x2D20, symBinAddr: 0x100005B2C, symSize: 0x28 }
  - { offsetInCU: 0x100FA, offset: 0x100FA, size: 0x8, addend: 0x0, symName: __ZNKSt3__19allocatorI4BallE8max_sizeB8ue170006Ev, symObjAddr: 0x2D48, symBinAddr: 0x100005B54, symSize: 0x18 }
  - { offsetInCU: 0x1011E, offset: 0x1011E, size: 0x8, addend: 0x0, symName: __ZNKSt3__117__compressed_pairIP4BallNS_9allocatorIS1_EEE6secondB8ue170006Ev, symObjAddr: 0x2D60, symBinAddr: 0x100005B6C, symSize: 0x24 }
  - { offsetInCU: 0x10143, offset: 0x10143, size: 0x8, addend: 0x0, symName: __ZNKSt3__122__compressed_pair_elemINS_9allocatorI4BallEELi1ELb1EE5__getB8ue170006Ev, symObjAddr: 0x2D84, symBinAddr: 0x100005B90, symSize: 0x14 }
  - { offsetInCU: 0x10167, offset: 0x10167, size: 0x8, addend: 0x0, symName: __ZNKSt3__16vectorI4BallNS_9allocatorIS1_EEE9__end_capB8ue170006Ev, symObjAddr: 0x2D98, symBinAddr: 0x100005BA4, symSize: 0x28 }
  - { offsetInCU: 0x1018B, offset: 0x1018B, size: 0x8, addend: 0x0, symName: __ZNKSt3__117__compressed_pairIP4BallNS_9allocatorIS1_EEE5firstB8ue170006Ev, symObjAddr: 0x2DC0, symBinAddr: 0x100005BCC, symSize: 0x24 }
  - { offsetInCU: 0x101B0, offset: 0x101B0, size: 0x8, addend: 0x0, symName: __ZNKSt3__122__compressed_pair_elemIP4BallLi0ELb0EE5__getB8ue170006Ev, symObjAddr: 0x2DE4, symBinAddr: 0x100005BF0, symSize: 0x14 }
  - { offsetInCU: 0x101D5, offset: 0x101D5, size: 0x8, addend: 0x0, symName: __ZNSt3__114__split_bufferI4BallRNS_9allocatorIS1_EEEC2EmmS4_, symObjAddr: 0x2E4C, symBinAddr: 0x100005C58, symSize: 0xE0 }
  - { offsetInCU: 0x10248, offset: 0x10248, size: 0x8, addend: 0x0, symName: __ZNSt3__117__compressed_pairIP4BallRNS_9allocatorIS1_EEEC1B8ue170006IDnS5_EEOT_OT0_, symObjAddr: 0x2F2C, symBinAddr: 0x100005D38, symSize: 0x3C }
  - { offsetInCU: 0x1029E, offset: 0x1029E, size: 0x8, addend: 0x0, symName: __ZNSt3__114__split_bufferI4BallRNS_9allocatorIS1_EEE7__allocB8ue170006Ev, symObjAddr: 0x2FA8, symBinAddr: 0x100005DB4, symSize: 0x28 }
  - { offsetInCU: 0x102C2, offset: 0x102C2, size: 0x8, addend: 0x0, symName: __ZNSt3__114__split_bufferI4BallRNS_9allocatorIS1_EEE9__end_capB8ue170006Ev, symObjAddr: 0x2FD0, symBinAddr: 0x100005DDC, symSize: 0x28 }
  - { offsetInCU: 0x102E7, offset: 0x102E7, size: 0x8, addend: 0x0, symName: __ZNSt3__117__compressed_pairIP4BallRNS_9allocatorIS1_EEEC2B8ue170006IDnS5_EEOT_OT0_, symObjAddr: 0x2FF8, symBinAddr: 0x100005E04, symSize: 0x48 }
  - { offsetInCU: 0x1033E, offset: 0x1033E, size: 0x8, addend: 0x0, symName: __ZNSt3__122__compressed_pair_elemIRNS_9allocatorI4BallEELi1ELb0EEC2B8ue170006IS4_vEEOT_, symObjAddr: 0x3040, symBinAddr: 0x100005E4C, symSize: 0x20 }
  - { offsetInCU: 0x1037E, offset: 0x1037E, size: 0x8, addend: 0x0, symName: __ZNSt3__19allocatorI4BallE8allocateB8ue170006Em, symObjAddr: 0x3060, symBinAddr: 0x100005E6C, symSize: 0x8C }
  - { offsetInCU: 0x103B0, offset: 0x103B0, size: 0x8, addend: 0x0, symName: __ZNSt3__117__compressed_pairIP4BallRNS_9allocatorIS1_EEE6secondB8ue170006Ev, symObjAddr: 0x30EC, symBinAddr: 0x100005EF8, symSize: 0x28 }
  - { offsetInCU: 0x103D5, offset: 0x103D5, size: 0x8, addend: 0x0, symName: __ZNSt3__122__compressed_pair_elemIRNS_9allocatorI4BallEELi1ELb0EE5__getB8ue170006Ev, symObjAddr: 0x3114, symBinAddr: 0x100005F20, symSize: 0x18 }
  - { offsetInCU: 0x103F9, offset: 0x103F9, size: 0x8, addend: 0x0, symName: __ZNSt3__117__compressed_pairIP4BallRNS_9allocatorIS1_EEE5firstB8ue170006Ev, symObjAddr: 0x312C, symBinAddr: 0x100005F38, symSize: 0x24 }
  - { offsetInCU: 0x1041D, offset: 0x1041D, size: 0x8, addend: 0x0, symName: __ZNKSt3__16vectorI4BallNS_9allocatorIS1_EEE17__annotate_deleteB8ue170006Ev, symObjAddr: 0x3150, symBinAddr: 0x100005F5C, symSize: 0xD4 }
  - { offsetInCU: 0x10442, offset: 0x10442, size: 0x8, addend: 0x0, symName: __ZNSt3__116reverse_iteratorIP4BallEC1B8ue170006ES2_, symObjAddr: 0x3358, symBinAddr: 0x100006164, symSize: 0x34 }
  - { offsetInCU: 0x10479, offset: 0x10479, size: 0x8, addend: 0x0, symName: __ZNKSt3__116reverse_iteratorIP4BallE4baseB8ue170006Ev, symObjAddr: 0x338C, symBinAddr: 0x100006198, symSize: 0x18 }
  - { offsetInCU: 0x1049D, offset: 0x1049D, size: 0x8, addend: 0x0, symName: __ZNKSt3__16vectorI4BallNS_9allocatorIS1_EEE14__annotate_newB8ue170006Em, symObjAddr: 0x33E0, symBinAddr: 0x1000061EC, symSize: 0xC8 }
  - { offsetInCU: 0x104D1, offset: 0x104D1, size: 0x8, addend: 0x0, symName: __ZNKSt3__16vectorI4BallNS_9allocatorIS1_EEE31__annotate_contiguous_containerB8ue170006EPKvS6_S6_S6_, symObjAddr: 0x34A8, symBinAddr: 0x1000062B4, symSize: 0x20 }
  - { offsetInCU: 0x10521, offset: 0x10521, size: 0x8, addend: 0x0, symName: __ZNKSt3__16vectorI4BallNS_9allocatorIS1_EEE4dataB8ue170006Ev, symObjAddr: 0x34C8, symBinAddr: 0x1000062D4, symSize: 0x28 }
  - { offsetInCU: 0x10546, offset: 0x10546, size: 0x8, addend: 0x0, symName: __ZNSt3__129_AllocatorDestroyRangeReverseINS_9allocatorI4BallEENS_16reverse_iteratorIPS2_EEEC1B8ue170006ERS3_RS6_S9_, symObjAddr: 0x353C, symBinAddr: 0x100006348, symSize: 0x44 }
  - { offsetInCU: 0x1059C, offset: 0x1059C, size: 0x8, addend: 0x0, symName: __ZNSt3__116allocator_traitsINS_9allocatorI4BallEEE9constructB8ue170006IS2_JRKS2_EvEEvRS3_PT_DpOT0_, symObjAddr: 0x35C8, symBinAddr: 0x1000063D4, symSize: 0x34 }
  - { offsetInCU: 0x105F3, offset: 0x105F3, size: 0x8, addend: 0x0, symName: __ZNKSt3__116reverse_iteratorIP4BallEdeB8ue170006Ev, symObjAddr: 0x3620, symBinAddr: 0x10000642C, symSize: 0x28 }
  - { offsetInCU: 0x10626, offset: 0x10626, size: 0x8, addend: 0x0, symName: __ZNSt3__116reverse_iteratorIP4BallEppB8ue170006Ev, symObjAddr: 0x3648, symBinAddr: 0x100006454, symSize: 0x20 }
  - { offsetInCU: 0x1064B, offset: 0x1064B, size: 0x8, addend: 0x0, symName: __ZNSt3__128__exception_guard_exceptionsINS_29_AllocatorDestroyRangeReverseINS_9allocatorI4BallEENS_16reverse_iteratorIPS3_EEEEE10__completeB8ue170006Ev, symObjAddr: 0x3668, symBinAddr: 0x100006474, symSize: 0x1C }
  - { offsetInCU: 0x10670, offset: 0x10670, size: 0x8, addend: 0x0, symName: __ZNSt3__128__exception_guard_exceptionsINS_29_AllocatorDestroyRangeReverseINS_9allocatorI4BallEENS_16reverse_iteratorIPS3_EEEEED1B8ue170006Ev, symObjAddr: 0x3684, symBinAddr: 0x100006490, symSize: 0x2C }
  - { offsetInCU: 0x10699, offset: 0x10699, size: 0x8, addend: 0x0, symName: __ZNSt3__128__exception_guard_exceptionsINS_29_AllocatorDestroyRangeReverseINS_9allocatorI4BallEENS_16reverse_iteratorIPS3_EEEEEC1B8ue170006ES8_, symObjAddr: 0x36B0, symBinAddr: 0x1000064BC, symSize: 0x34 }
  - { offsetInCU: 0x106D1, offset: 0x106D1, size: 0x8, addend: 0x0, symName: __ZNSt3__128__exception_guard_exceptionsINS_29_AllocatorDestroyRangeReverseINS_9allocatorI4BallEENS_16reverse_iteratorIPS3_EEEEEC2B8ue170006ES8_, symObjAddr: 0x36E4, symBinAddr: 0x1000064F0, symSize: 0x30 }
  - { offsetInCU: 0x10709, offset: 0x10709, size: 0x8, addend: 0x0, symName: __ZNSt3__129_AllocatorDestroyRangeReverseINS_9allocatorI4BallEENS_16reverse_iteratorIPS2_EEEC2B8ue170006ERS3_RS6_S9_, symObjAddr: 0x3714, symBinAddr: 0x100006520, symSize: 0x38 }
  - { offsetInCU: 0x1075E, offset: 0x1075E, size: 0x8, addend: 0x0, symName: __ZNSt3__19allocatorI4BallE9constructB8ue170006IS1_JRKS1_EEEvPT_DpOT0_, symObjAddr: 0x374C, symBinAddr: 0x100006558, symSize: 0x30 }
  - { offsetInCU: 0x107B8, offset: 0x107B8, size: 0x8, addend: 0x0, symName: __ZNSt3__119__to_address_helperINS_16reverse_iteratorIP4BallEEvE6__callB8ue170006ERKS4_, symObjAddr: 0x377C, symBinAddr: 0x100006588, symSize: 0x4C }
  - { offsetInCU: 0x107DA, offset: 0x107DA, size: 0x8, addend: 0x0, symName: __ZNKSt3__116reverse_iteratorIP4BallEptB8ue170006Ev, symObjAddr: 0x37C8, symBinAddr: 0x1000065D4, symSize: 0x24 }
  - { offsetInCU: 0x107FF, offset: 0x107FF, size: 0x8, addend: 0x0, symName: __ZNSt3__128__exception_guard_exceptionsINS_29_AllocatorDestroyRangeReverseINS_9allocatorI4BallEENS_16reverse_iteratorIPS3_EEEEED2B8ue170006Ev, symObjAddr: 0x37EC, symBinAddr: 0x1000065F8, symSize: 0x48 }
  - { offsetInCU: 0x10827, offset: 0x10827, size: 0x8, addend: 0x0, symName: __ZNKSt3__129_AllocatorDestroyRangeReverseINS_9allocatorI4BallEENS_16reverse_iteratorIPS2_EEEclB8ue170006Ev, symObjAddr: 0x3834, symBinAddr: 0x100006640, symSize: 0xB4 }
  - { offsetInCU: 0x1084D, offset: 0x1084D, size: 0x8, addend: 0x0, symName: __ZNSt3__116reverse_iteratorINS0_IP4BallEEEC1B8ue170006ES3_, symObjAddr: 0x3958, symBinAddr: 0x100006764, symSize: 0x3C }
  - { offsetInCU: 0x10884, offset: 0x10884, size: 0x8, addend: 0x0, symName: __ZNSt3__116allocator_traitsINS_9allocatorI4BallEEE7destroyB8ue170006IS2_vEEvRS3_PT_, symObjAddr: 0x39F4, symBinAddr: 0x100006800, symSize: 0x2C }
  - { offsetInCU: 0x108C0, offset: 0x108C0, size: 0x8, addend: 0x0, symName: __ZNSt3__116reverse_iteratorINS0_IP4BallEEEppB8ue170006Ev, symObjAddr: 0x3A44, symBinAddr: 0x100006850, symSize: 0x30 }
  - { offsetInCU: 0x108E5, offset: 0x108E5, size: 0x8, addend: 0x0, symName: __ZNKSt3__116reverse_iteratorINS0_IP4BallEEE4baseB8ue170006Ev, symObjAddr: 0x3A74, symBinAddr: 0x100006880, symSize: 0x24 }
  - { offsetInCU: 0x10909, offset: 0x10909, size: 0x8, addend: 0x0, symName: __ZNSt3__19allocatorI4BallE7destroyB8ue170006EPS1_, symObjAddr: 0x3A98, symBinAddr: 0x1000068A4, symSize: 0x28 }
  - { offsetInCU: 0x10941, offset: 0x10941, size: 0x8, addend: 0x0, symName: __ZNSt3__119__to_address_helperINS_16reverse_iteratorINS1_IP4BallEEEEvE6__callB8ue170006ERKS5_, symObjAddr: 0x3AC0, symBinAddr: 0x1000068CC, symSize: 0x4C }
  - { offsetInCU: 0x10963, offset: 0x10963, size: 0x8, addend: 0x0, symName: __ZNKSt3__116reverse_iteratorINS0_IP4BallEEEptB8ue170006Ev, symObjAddr: 0x3B0C, symBinAddr: 0x100006918, symSize: 0x24 }
  - { offsetInCU: 0x10987, offset: 0x10987, size: 0x8, addend: 0x0, symName: __ZNKSt3__116reverse_iteratorINS0_IP4BallEEEdeB8ue170006Ev, symObjAddr: 0x3B30, symBinAddr: 0x10000693C, symSize: 0x34 }
  - { offsetInCU: 0x109BA, offset: 0x109BA, size: 0x8, addend: 0x0, symName: __ZNSt3__116reverse_iteratorIP4BallEmmB8ue170006Ev, symObjAddr: 0x3B64, symBinAddr: 0x100006970, symSize: 0x20 }
  - { offsetInCU: 0x109DF, offset: 0x109DF, size: 0x8, addend: 0x0, symName: __ZNSt3__116reverse_iteratorINS0_IP4BallEEEC2B8ue170006ES3_, symObjAddr: 0x3B84, symBinAddr: 0x100006990, symSize: 0x2C }
  - { offsetInCU: 0x10A16, offset: 0x10A16, size: 0x8, addend: 0x0, symName: __ZNSt3__116reverse_iteratorIP4BallEC2B8ue170006ES2_, symObjAddr: 0x3BB0, symBinAddr: 0x1000069BC, symSize: 0x28 }
  - { offsetInCU: 0x10A4D, offset: 0x10A4D, size: 0x8, addend: 0x0, symName: __ZNSt3__114__split_bufferI4BallRNS_9allocatorIS1_EEED2Ev, symObjAddr: 0x3BD8, symBinAddr: 0x1000069E4, symSize: 0x80 }
  - { offsetInCU: 0x10A77, offset: 0x10A77, size: 0x8, addend: 0x0, symName: __ZNSt3__114__split_bufferI4BallRNS_9allocatorIS1_EEE5clearB8ue170006Ev, symObjAddr: 0x3C58, symBinAddr: 0x100006A64, symSize: 0x28 }
  - { offsetInCU: 0x10A9C, offset: 0x10A9C, size: 0x8, addend: 0x0, symName: __ZNSt3__116allocator_traitsINS_9allocatorI4BallEEE10deallocateB8ue170006ERS3_PS2_m, symObjAddr: 0x3C80, symBinAddr: 0x100006A8C, symSize: 0x34 }
  - { offsetInCU: 0x10ADD, offset: 0x10ADD, size: 0x8, addend: 0x0, symName: __ZNKSt3__114__split_bufferI4BallRNS_9allocatorIS1_EEE8capacityB8ue170006Ev, symObjAddr: 0x3CB4, symBinAddr: 0x100006AC0, symSize: 0x40 }
  - { offsetInCU: 0x10B01, offset: 0x10B01, size: 0x8, addend: 0x0, symName: __ZNSt3__114__split_bufferI4BallRNS_9allocatorIS1_EEE17__destruct_at_endB8ue170006EPS1_, symObjAddr: 0x3CF4, symBinAddr: 0x100006B00, symSize: 0x2C }
  - { offsetInCU: 0x10B33, offset: 0x10B33, size: 0x8, addend: 0x0, symName: __ZNSt3__114__split_bufferI4BallRNS_9allocatorIS1_EEE17__destruct_at_endB8ue170006EPS1_NS_17integral_constantIbLb0EEE, symObjAddr: 0x3D20, symBinAddr: 0x100006B2C, symSize: 0x94 }
  - { offsetInCU: 0x10B71, offset: 0x10B71, size: 0x8, addend: 0x0, symName: __ZNSt3__19allocatorI4BallE10deallocateB8ue170006EPS1_m, symObjAddr: 0x3DB4, symBinAddr: 0x100006BC0, symSize: 0x74 }
  - { offsetInCU: 0x10BB1, offset: 0x10BB1, size: 0x8, addend: 0x0, symName: __ZNKSt3__114__split_bufferI4BallRNS_9allocatorIS1_EEE9__end_capB8ue170006Ev, symObjAddr: 0x3E28, symBinAddr: 0x100006C34, symSize: 0x28 }
  - { offsetInCU: 0x10BD5, offset: 0x10BD5, size: 0x8, addend: 0x0, symName: __ZNKSt3__117__compressed_pairIP4BallRNS_9allocatorIS1_EEE5firstB8ue170006Ev, symObjAddr: 0x3E50, symBinAddr: 0x100006C5C, symSize: 0x24 }
  - { offsetInCU: 0x10BFA, offset: 0x10BFA, size: 0x8, addend: 0x0, symName: __ZN4BallC1Eiffiii, symObjAddr: 0x3E74, symBinAddr: 0x100006C80, symSize: 0x5C }
  - { offsetInCU: 0x10C77, offset: 0x10C77, size: 0x8, addend: 0x0, symName: __ZN4BallC2Eiffiii, symObjAddr: 0x3ED0, symBinAddr: 0x100006CDC, symSize: 0xD8 }
  - { offsetInCU: 0x10D17, offset: 0x10D17, size: 0x8, addend: 0x0, symName: __ZNSt3__16vectorI10SDL_FPointNS_9allocatorIS1_EEEC1B8ue170006Ev, symObjAddr: 0x3FA8, symBinAddr: 0x100006DB4, symSize: 0x2C }
  - { offsetInCU: 0x10D3F, offset: 0x10D3F, size: 0x8, addend: 0x0, symName: __ZN4Ball12createCircleEv, symObjAddr: 0x3FD4, symBinAddr: 0x100006DE0, symSize: 0x184 }
  - { offsetInCU: 0x10DB2, offset: 0x10DB2, size: 0x8, addend: 0x0, symName: __ZNSt3__16vectorI10SDL_FPointNS_9allocatorIS1_EEED1B8ue170006Ev, symObjAddr: 0x4158, symBinAddr: 0x100006F64, symSize: 0x2C }
  - { offsetInCU: 0x10DDB, offset: 0x10DDB, size: 0x8, addend: 0x0, symName: __ZNSt3__16vectorI10SDL_FPointNS_9allocatorIS1_EEEC2B8ue170006Ev, symObjAddr: 0x4184, symBinAddr: 0x100006F90, symSize: 0x44 }
  - { offsetInCU: 0x10E04, offset: 0x10E04, size: 0x8, addend: 0x0, symName: __ZNSt3__117__compressed_pairIP10SDL_FPointNS_9allocatorIS1_EEEC1B8ue170006IDnNS_18__default_init_tagEEEOT_OT0_, symObjAddr: 0x41C8, symBinAddr: 0x100006FD4, symSize: 0x3C }
  - { offsetInCU: 0x10E5B, offset: 0x10E5B, size: 0x8, addend: 0x0, symName: __ZNSt3__117__compressed_pairIP10SDL_FPointNS_9allocatorIS1_EEEC2B8ue170006IDnNS_18__default_init_tagEEEOT_OT0_, symObjAddr: 0x4204, symBinAddr: 0x100007010, symSize: 0x40 }
  - { offsetInCU: 0x10EB2, offset: 0x10EB2, size: 0x8, addend: 0x0, symName: __ZNSt3__122__compressed_pair_elemINS_9allocatorI10SDL_FPointEELi1ELb1EEC2B8ue170006ENS_18__default_init_tagE, symObjAddr: 0x4244, symBinAddr: 0x100007050, symSize: 0x2C }
  - { offsetInCU: 0x10EE5, offset: 0x10EE5, size: 0x8, addend: 0x0, symName: __ZNSt3__19allocatorI10SDL_FPointEC2B8ue170006Ev, symObjAddr: 0x4270, symBinAddr: 0x10000707C, symSize: 0x2C }
  - { offsetInCU: 0x10F0E, offset: 0x10F0E, size: 0x8, addend: 0x0, symName: __ZNSt3__116__non_trivial_ifILb1ENS_9allocatorI10SDL_FPointEEEC2B8ue170006Ev, symObjAddr: 0x429C, symBinAddr: 0x1000070A8, symSize: 0x14 }
  - { offsetInCU: 0x10F36, offset: 0x10F36, size: 0x8, addend: 0x0, symName: __ZNSt3__16vectorI10SDL_FPointNS_9allocatorIS1_EEE9push_backB8ue170006ERKS1_, symObjAddr: 0x42B0, symBinAddr: 0x1000070BC, symSize: 0x6C }
  - { offsetInCU: 0x10F6B, offset: 0x10F6B, size: 0x8, addend: 0x0, symName: __ZNSt3__16vectorI10SDL_FPointNS_9allocatorIS1_EEEaSB8ue170006ERKS4_, symObjAddr: 0x431C, symBinAddr: 0x100007128, symSize: 0x68 }
  - { offsetInCU: 0x10FA0, offset: 0x10FA0, size: 0x8, addend: 0x0, symName: __ZNSt3__16vectorI10SDL_FPointNS_9allocatorIS1_EEE22__construct_one_at_endB8ue170006IJRKS1_EEEvDpOT_, symObjAddr: 0x4384, symBinAddr: 0x100007190, symSize: 0x98 }
  - { offsetInCU: 0x10FED, offset: 0x10FED, size: 0x8, addend: 0x0, symName: __ZNSt3__16vectorI10SDL_FPointNS_9allocatorIS1_EEE21__push_back_slow_pathIRKS1_EEvOT_, symObjAddr: 0x441C, symBinAddr: 0x100007228, symSize: 0xE0 }
  - { offsetInCU: 0x1104A, offset: 0x1104A, size: 0x8, addend: 0x0, symName: __ZNSt3__116allocator_traitsINS_9allocatorI10SDL_FPointEEE9constructB8ue170006IS2_JRKS2_EvEEvRS3_PT_DpOT0_, symObjAddr: 0x44FC, symBinAddr: 0x100007308, symSize: 0x34 }
  - { offsetInCU: 0x110A1, offset: 0x110A1, size: 0x8, addend: 0x0, symName: __ZNSt3__19allocatorI10SDL_FPointE9constructB8ue170006IS1_JRKS1_EEEvPT_DpOT0_, symObjAddr: 0x4530, symBinAddr: 0x10000733C, symSize: 0x28 }
  - { offsetInCU: 0x110F5, offset: 0x110F5, size: 0x8, addend: 0x0, symName: __ZNKSt3__16vectorI10SDL_FPointNS_9allocatorIS1_EEE11__recommendB8ue170006Em, symObjAddr: 0x4558, symBinAddr: 0x100007364, symSize: 0xB4 }
  - { offsetInCU: 0x11149, offset: 0x11149, size: 0x8, addend: 0x0, symName: __ZNSt3__114__split_bufferI10SDL_FPointRNS_9allocatorIS1_EEEC1EmmS4_, symObjAddr: 0x460C, symBinAddr: 0x100007418, symSize: 0x44 }
  - { offsetInCU: 0x1119E, offset: 0x1119E, size: 0x8, addend: 0x0, symName: __ZNSt3__114__split_bufferI10SDL_FPointRNS_9allocatorIS1_EEED1Ev, symObjAddr: 0x4760, symBinAddr: 0x10000756C, symSize: 0x2C }
  - { offsetInCU: 0x111C9, offset: 0x111C9, size: 0x8, addend: 0x0, symName: __ZNSt3__114__split_bufferI10SDL_FPointRNS_9allocatorIS1_EEEC2EmmS4_, symObjAddr: 0x478C, symBinAddr: 0x100007598, symSize: 0xD4 }
  - { offsetInCU: 0x1123C, offset: 0x1123C, size: 0x8, addend: 0x0, symName: __ZNSt3__117__compressed_pairIP10SDL_FPointRNS_9allocatorIS1_EEEC1B8ue170006IDnS5_EEOT_OT0_, symObjAddr: 0x4860, symBinAddr: 0x10000766C, symSize: 0x3C }
  - { offsetInCU: 0x11292, offset: 0x11292, size: 0x8, addend: 0x0, symName: __ZNSt3__114__split_bufferI10SDL_FPointRNS_9allocatorIS1_EEE7__allocB8ue170006Ev, symObjAddr: 0x489C, symBinAddr: 0x1000076A8, symSize: 0x28 }
  - { offsetInCU: 0x112B6, offset: 0x112B6, size: 0x8, addend: 0x0, symName: __ZNSt3__114__split_bufferI10SDL_FPointRNS_9allocatorIS1_EEE9__end_capB8ue170006Ev, symObjAddr: 0x48C4, symBinAddr: 0x1000076D0, symSize: 0x28 }
  - { offsetInCU: 0x112DB, offset: 0x112DB, size: 0x8, addend: 0x0, symName: __ZNSt3__117__compressed_pairIP10SDL_FPointRNS_9allocatorIS1_EEEC2B8ue170006IDnS5_EEOT_OT0_, symObjAddr: 0x48EC, symBinAddr: 0x1000076F8, symSize: 0x48 }
  - { offsetInCU: 0x11332, offset: 0x11332, size: 0x8, addend: 0x0, symName: __ZNSt3__122__compressed_pair_elemIRNS_9allocatorI10SDL_FPointEELi1ELb0EEC2B8ue170006IS4_vEEOT_, symObjAddr: 0x4934, symBinAddr: 0x100007740, symSize: 0x20 }
  - { offsetInCU: 0x11372, offset: 0x11372, size: 0x8, addend: 0x0, symName: __ZNSt3__117__compressed_pairIP10SDL_FPointRNS_9allocatorIS1_EEE6secondB8ue170006Ev, symObjAddr: 0x4954, symBinAddr: 0x100007760, symSize: 0x28 }
  - { offsetInCU: 0x11397, offset: 0x11397, size: 0x8, addend: 0x0, symName: __ZNSt3__122__compressed_pair_elemIRNS_9allocatorI10SDL_FPointEELi1ELb0EE5__getB8ue170006Ev, symObjAddr: 0x497C, symBinAddr: 0x100007788, symSize: 0x18 }
  - { offsetInCU: 0x113BB, offset: 0x113BB, size: 0x8, addend: 0x0, symName: __ZNSt3__117__compressed_pairIP10SDL_FPointRNS_9allocatorIS1_EEE5firstB8ue170006Ev, symObjAddr: 0x4994, symBinAddr: 0x1000077A0, symSize: 0x24 }
  - { offsetInCU: 0x11402, offset: 0x11402, size: 0x8, addend: 0x0, symName: __ZNKSt3__111__move_loopINS_17_ClassicAlgPolicyEEclB8ue170006INS_16reverse_iteratorIP10SDL_FPointEES7_S7_EENS_4pairIT_T1_EES9_T0_SA_, symObjAddr: 0x4DF8, symBinAddr: 0x100007C04, symSize: 0xA0 }
  - { offsetInCU: 0x11471, offset: 0x11471, size: 0x8, addend: 0x0, symName: __ZNSt3__18_IterOpsINS_17_ClassicAlgPolicyEE11__iter_moveB8ue170006IRNS_16reverse_iteratorIP10SDL_FPointEEEENS_9enable_ifIXsr12is_referenceIDTdeclsr3stdE7declvalIRT_EEEEE5valueEDTclsr3stdE4movedeclsr3stdE7declvalISB_EEEEE4typeEOSA_, symObjAddr: 0x4FF8, symBinAddr: 0x100007E04, symSize: 0x28 }
  - { offsetInCU: 0x1149D, offset: 0x1149D, size: 0x8, addend: 0x0, symName: __ZNSt3__18_IterOpsINS_17_ClassicAlgPolicyEE25__validate_iter_referenceB8ue170006IRNS_16reverse_iteratorIP10SDL_FPointEEEEvv, symObjAddr: 0x5020, symBinAddr: 0x100007E2C, symSize: 0x4 }
  - { offsetInCU: 0x114BB, offset: 0x114BB, size: 0x8, addend: 0x0, symName: __ZNSt3__118__unwrap_iter_implINS_16reverse_iteratorIP10SDL_FPointEELb0EE8__unwrapB8ue170006ES4_, symObjAddr: 0x5024, symBinAddr: 0x100007E30, symSize: 0x24 }
  - { offsetInCU: 0x114DE, offset: 0x114DE, size: 0x8, addend: 0x0, symName: __ZNSt3__14pairINS_16reverse_iteratorIP10SDL_FPointEES4_EC1B8ue170006ERKS4_S7_, symObjAddr: 0x5048, symBinAddr: 0x100007E54, symSize: 0x3C }
  - { offsetInCU: 0x11523, offset: 0x11523, size: 0x8, addend: 0x0, symName: __ZNSt3__14pairINS_16reverse_iteratorIP10SDL_FPointEES4_EC2B8ue170006ERKS4_S7_, symObjAddr: 0x5084, symBinAddr: 0x100007E90, symSize: 0x34 }
  - { offsetInCU: 0x11568, offset: 0x11568, size: 0x8, addend: 0x0, symName: __ZNSt3__118__unwrap_iter_implINS_16reverse_iteratorIP10SDL_FPointEELb0EE8__rewrapB8ue170006ES4_S4_, symObjAddr: 0x50B8, symBinAddr: 0x100007EC4, symSize: 0x2C }
  - { offsetInCU: 0x11595, offset: 0x11595, size: 0x8, addend: 0x0, symName: __ZNSt3__114__split_bufferI10SDL_FPointRNS_9allocatorIS1_EEED2Ev, symObjAddr: 0x50E4, symBinAddr: 0x100007EF0, symSize: 0x80 }
  - { offsetInCU: 0x115BF, offset: 0x115BF, size: 0x8, addend: 0x0, symName: __ZNSt3__114__split_bufferI10SDL_FPointRNS_9allocatorIS1_EEE5clearB8ue170006Ev, symObjAddr: 0x5164, symBinAddr: 0x100007F70, symSize: 0x28 }
  - { offsetInCU: 0x115E3, offset: 0x115E3, size: 0x8, addend: 0x0, symName: __ZNKSt3__114__split_bufferI10SDL_FPointRNS_9allocatorIS1_EEE8capacityB8ue170006Ev, symObjAddr: 0x518C, symBinAddr: 0x100007F98, symSize: 0x40 }
  - { offsetInCU: 0x11607, offset: 0x11607, size: 0x8, addend: 0x0, symName: __ZNSt3__114__split_bufferI10SDL_FPointRNS_9allocatorIS1_EEE17__destruct_at_endB8ue170006EPS1_, symObjAddr: 0x51CC, symBinAddr: 0x100007FD8, symSize: 0x2C }
  - { offsetInCU: 0x11639, offset: 0x11639, size: 0x8, addend: 0x0, symName: __ZNSt3__114__split_bufferI10SDL_FPointRNS_9allocatorIS1_EEE17__destruct_at_endB8ue170006EPS1_NS_17integral_constantIbLb0EEE, symObjAddr: 0x51F8, symBinAddr: 0x100008004, symSize: 0x94 }
  - { offsetInCU: 0x11677, offset: 0x11677, size: 0x8, addend: 0x0, symName: __ZNKSt3__114__split_bufferI10SDL_FPointRNS_9allocatorIS1_EEE9__end_capB8ue170006Ev, symObjAddr: 0x528C, symBinAddr: 0x100008098, symSize: 0x28 }
  - { offsetInCU: 0x1169B, offset: 0x1169B, size: 0x8, addend: 0x0, symName: __ZNKSt3__117__compressed_pairIP10SDL_FPointRNS_9allocatorIS1_EEE5firstB8ue170006Ev, symObjAddr: 0x52B4, symBinAddr: 0x1000080C0, symSize: 0x24 }
  - { offsetInCU: 0x116BF, offset: 0x116BF, size: 0x8, addend: 0x0, symName: __ZNSt3__16vectorI10SDL_FPointNS_9allocatorIS1_EEE19__copy_assign_allocB8ue170006ERKS4_, symObjAddr: 0x52D8, symBinAddr: 0x1000080E4, symSize: 0x2C }
  - { offsetInCU: 0x116F2, offset: 0x116F2, size: 0x8, addend: 0x0, symName: __ZNSt3__16vectorI10SDL_FPointNS_9allocatorIS1_EEE6assignIPS1_Li0EEEvT_S7_, symObjAddr: 0x5304, symBinAddr: 0x100008110, symSize: 0x5C }
  - { offsetInCU: 0x11746, offset: 0x11746, size: 0x8, addend: 0x0, symName: __ZNSt3__16vectorI10SDL_FPointNS_9allocatorIS1_EEE19__copy_assign_allocB8ue170006ERKS4_NS_17integral_constantIbLb0EEE, symObjAddr: 0x5360, symBinAddr: 0x10000816C, symSize: 0x14 }
  - { offsetInCU: 0x11780, offset: 0x11780, size: 0x8, addend: 0x0, symName: __ZNSt3__16vectorI10SDL_FPointNS_9allocatorIS1_EEE18__assign_with_sizeB8ue170006IPS1_S6_EEvT_T0_l, symObjAddr: 0x5374, symBinAddr: 0x100008180, symSize: 0x164 }
  - { offsetInCU: 0x11830, offset: 0x11830, size: 0x8, addend: 0x0, symName: __ZNSt3__16vectorI10SDL_FPointNS_9allocatorIS1_EEE17__destruct_at_endB8ue170006EPS1_, symObjAddr: 0x55BC, symBinAddr: 0x1000083C8, symSize: 0x4C }
  - { offsetInCU: 0x11872, offset: 0x11872, size: 0x8, addend: 0x0, symName: __ZNSt3__16vectorI10SDL_FPointNS_9allocatorIS1_EEE13__vdeallocateEv, symObjAddr: 0x5608, symBinAddr: 0x100008414, symSize: 0x94 }
  - { offsetInCU: 0x118A2, offset: 0x118A2, size: 0x8, addend: 0x0, symName: __ZNKSt3__114__copy_trivialclB8ue170006I10SDL_FPointS2_Li0EEENS_4pairIPT_PT0_EES5_S5_S7_, symObjAddr: 0x5808, symBinAddr: 0x100008614, symSize: 0x48 }
  - { offsetInCU: 0x11908, offset: 0x11908, size: 0x8, addend: 0x0, symName: __ZNKSt3__16vectorI10SDL_FPointNS_9allocatorIS1_EEE17__annotate_shrinkB8ue170006Em, symObjAddr: 0x59D4, symBinAddr: 0x1000087E0, symSize: 0xB4 }
  - { offsetInCU: 0x1193B, offset: 0x1193B, size: 0x8, addend: 0x0, symName: __ZNSt3__16vectorI10SDL_FPointNS_9allocatorIS1_EEE5clearB8ue170006Ev, symObjAddr: 0x5A88, symBinAddr: 0x100008894, symSize: 0x44 }
  - { offsetInCU: 0x1196F, offset: 0x1196F, size: 0x8, addend: 0x0, symName: __ZNSt3__16vectorI10SDL_FPointNS_9allocatorIS1_EEED2B8ue170006Ev, symObjAddr: 0x5AF4, symBinAddr: 0x100008900, symSize: 0x3C }
  - { offsetInCU: 0x11998, offset: 0x11998, size: 0x8, addend: 0x0, symName: __ZN4BallD2Ev, symObjAddr: 0x5B30, symBinAddr: 0x10000893C, symSize: 0x30 }
  - { offsetInCU: 0x119C3, offset: 0x119C3, size: 0x8, addend: 0x0, symName: __ZNSt3__16vectorI4BallNS_9allocatorIS1_EEED2B8ue170006Ev, symObjAddr: 0x5B60, symBinAddr: 0x10000896C, symSize: 0x3C }
  - { offsetInCU: 0x119EC, offset: 0x119EC, size: 0x8, addend: 0x0, symName: __ZNSt3__16vectorI4BallNS_9allocatorIS1_EEE16__destroy_vectorC1B8ue170006ERS4_, symObjAddr: 0x5B9C, symBinAddr: 0x1000089A8, symSize: 0x34 }
  - { offsetInCU: 0x11A23, offset: 0x11A23, size: 0x8, addend: 0x0, symName: __ZNSt3__16vectorI4BallNS_9allocatorIS1_EEE16__destroy_vectorclB8ue170006Ev, symObjAddr: 0x5BD0, symBinAddr: 0x1000089DC, symSize: 0x90 }
  - { offsetInCU: 0x11A48, offset: 0x11A48, size: 0x8, addend: 0x0, symName: __ZNSt3__16vectorI4BallNS_9allocatorIS1_EEE16__destroy_vectorC2B8ue170006ERS4_, symObjAddr: 0x5C60, symBinAddr: 0x100008A6C, symSize: 0x20 }
  - { offsetInCU: 0x11A7F, offset: 0x11A7F, size: 0x8, addend: 0x0, symName: __ZNSt3__16vectorI4BallNS_9allocatorIS1_EEE7__clearB8ue170006Ev, symObjAddr: 0x5C80, symBinAddr: 0x100008A8C, symSize: 0x28 }
  - { offsetInCU: 0x11AA3, offset: 0x11AA3, size: 0x8, addend: 0x0, symName: __ZNSt3__16vectorI4BallNS_9allocatorIS1_EEE22__base_destruct_at_endB8ue170006EPS1_, symObjAddr: 0x5CA8, symBinAddr: 0x100008AB4, symSize: 0xA0 }
  - { offsetInCU: 0x11AE6, offset: 0x11AE6, size: 0x8, addend: 0x0, symName: __ZNSt3__16chrono8durationIdNS_5ratioILl1ELl1EEEEC2B8ue170006Ev, symObjAddr: 0x5D48, symBinAddr: 0x100008B54, symSize: 0x14 }
  - { offsetInCU: 0x11B0F, offset: 0x11B0F, size: 0x8, addend: 0x0, symName: __ZN13BallContainerD2Ev, symObjAddr: 0x5D5C, symBinAddr: 0x100008B68, symSize: 0x2C }
  - { offsetInCU: 0x11B3A, offset: 0x11B3A, size: 0x8, addend: 0x0, symName: __ZNSt3__16chrono8durationIdNS_5ratioILl1ELl1EEEEC1B8ue170006IxNS2_ILl1ELl1000000EEEEERKNS1_IT_T0_EEPNS_9enable_ifIXaasr13__no_overflowIS8_S3_EE5valueooL_ZNS_17integral_constantIbLb1EE5valueEEaaeqsr13__no_overflowIS8_S3_E4typeE3denLi1Entsr23treat_as_floating_pointIS7_EE5valueEvE4typeE, symObjAddr: 0x5DE0, symBinAddr: 0x100008BEC, symSize: 0x3C }
  - { offsetInCU: 0x11B8F, offset: 0x11B8F, size: 0x8, addend: 0x0, symName: __ZNKSt3__16chrono8durationIdNS_5ratioILl1ELl1EEEE5countB8ue170006Ev, symObjAddr: 0x5E1C, symBinAddr: 0x100008C28, symSize: 0x18 }
  - { offsetInCU: 0x11BB3, offset: 0x11BB3, size: 0x8, addend: 0x0, symName: __ZN13BallContainer7presentEP12SDL_Renderer, symObjAddr: 0x5E34, symBinAddr: 0x100008C40, symSize: 0x5FC }
  - { offsetInCU: 0x11D78, offset: 0x11D78, size: 0x8, addend: 0x0, symName: __ZNKSt3__16chrono10time_pointINS0_12system_clockENS0_8durationIxNS_5ratioILl1ELl1000000EEEEEE16time_since_epochB8ue170006Ev, symObjAddr: 0x64A0, symBinAddr: 0x1000092AC, symSize: 0x20 }
  - { offsetInCU: 0x11D9D, offset: 0x11D9D, size: 0x8, addend: 0x0, symName: __ZNKSt3__16chrono8durationIxNS_5ratioILl1ELl1000000EEEE5countB8ue170006Ev, symObjAddr: 0x64C0, symBinAddr: 0x1000092CC, symSize: 0x18 }
  - { offsetInCU: 0x11DC2, offset: 0x11DC2, size: 0x8, addend: 0x0, symName: __ZNSt3__16chrono8durationIdNS_5ratioILl1ELl1EEEEC2B8ue170006IxNS2_ILl1ELl1000000EEEEERKNS1_IT_T0_EEPNS_9enable_ifIXaasr13__no_overflowIS8_S3_EE5valueooL_ZNS_17integral_constantIbLb1EE5valueEEaaeqsr13__no_overflowIS8_S3_E4typeE3denLi1Entsr23treat_as_floating_pointIS7_EE5valueEvE4typeE, symObjAddr: 0x64D8, symBinAddr: 0x1000092E4, symSize: 0x48 }
  - { offsetInCU: 0x11E21, offset: 0x11E21, size: 0x8, addend: 0x0, symName: __ZNSt3__16chrono8durationIdNS_5ratioILl1ELl1EEEEC1B8ue170006IdEERKT_PNS_9enable_ifIXaasr14is_convertibleIS8_dEE5valueooL_ZNS_17integral_constantIbLb1EE5valueEEntsr23treat_as_floating_pointIS6_EE5valueEvE4typeE, symObjAddr: 0x65A0, symBinAddr: 0x1000093AC, symSize: 0x3C }
  - { offsetInCU: 0x11E6C, offset: 0x11E6C, size: 0x8, addend: 0x0, symName: __ZNSt3__16chrono8durationIdNS_5ratioILl1ELl1EEEEC2B8ue170006IdEERKT_PNS_9enable_ifIXaasr14is_convertibleIS8_dEE5valueooL_ZNS_17integral_constantIbLb1EE5valueEEntsr23treat_as_floating_pointIS6_EE5valueEvE4typeE, symObjAddr: 0x65DC, symBinAddr: 0x1000093E8, symSize: 0x28 }
  - { offsetInCU: 0x11EB7, offset: 0x11EB7, size: 0x8, addend: 0x0, symName: __ZNSt3__16vectorI4BallNS_9allocatorIS1_EEEixB8ue170006Em, symObjAddr: 0x6604, symBinAddr: 0x100009410, symSize: 0x2C }
  - { offsetInCU: 0x11EEC, offset: 0x11EEC, size: 0x8, addend: 0x0, symName: __ZN4Ball4moveEv, symObjAddr: 0x6630, symBinAddr: 0x10000943C, symSize: 0x184 }
  - { offsetInCU: 0x11F2D, offset: 0x11F2D, size: 0x8, addend: 0x0, symName: __ZN4Ball4setYEf, symObjAddr: 0x67B4, symBinAddr: 0x1000095C0, symSize: 0x30 }
  - { offsetInCU: 0x11F60, offset: 0x11F60, size: 0x8, addend: 0x0, symName: __ZN4Ball6addVecE14VelocityVector, symObjAddr: 0x67E4, symBinAddr: 0x1000095F0, symSize: 0x3C }
  - { offsetInCU: 0x11F92, offset: 0x11F92, size: 0x8, addend: 0x0, symName: __ZN4Ball4setXEf, symObjAddr: 0x6820, symBinAddr: 0x10000962C, symSize: 0x30 }
  - { offsetInCU: 0x11FC4, offset: 0x11FC4, size: 0x8, addend: 0x0, symName: __Z3absB8ue170006d, symObjAddr: 0x6850, symBinAddr: 0x10000965C, symSize: 0x18 }
  - { offsetInCU: 0x11FF0, offset: 0x11FF0, size: 0x8, addend: 0x0, symName: __Z3absB8ue170006f, symObjAddr: 0x68A0, symBinAddr: 0x1000096AC, symSize: 0x18 }
  - { offsetInCU: 0x1201C, offset: 0x1201C, size: 0x8, addend: 0x0, symName: __ZN4Ball7presentEP12SDL_Renderer, symObjAddr: 0x68B8, symBinAddr: 0x1000096C4, symSize: 0x84 }
  - { offsetInCU: 0x1204E, offset: 0x1204E, size: 0x8, addend: 0x0, symName: __ZN4Ball12applyGravityEv, symObjAddr: 0x693C, symBinAddr: 0x100009748, symSize: 0x58 }
  - { offsetInCU: 0x12081, offset: 0x12081, size: 0x8, addend: 0x0, symName: __ZNSt3__16vectorI10SDL_FPointNS_9allocatorIS1_EEEixB8ue170006Em, symObjAddr: 0x6994, symBinAddr: 0x1000097A0, symSize: 0x24 }
  - { offsetInCU: 0x120B6, offset: 0x120B6, size: 0x8, addend: 0x0, symName: __ZNSt3__16vectorI10SDL_FPointNS_9allocatorIS1_EEE4dataB8ue170006Ev, symObjAddr: 0x69B8, symBinAddr: 0x1000097C4, symSize: 0x28 }
  - { offsetInCU: 0x120DA, offset: 0x120DA, size: 0x8, addend: 0x0, symName: __ZN13BallContainer16mainBallMoveLeftEv, symObjAddr: 0x69E0, symBinAddr: 0x1000097EC, symSize: 0x30 }
  - { offsetInCU: 0x120FE, offset: 0x120FE, size: 0x8, addend: 0x0, symName: __ZN13BallContainer17mainBallMoveRightEv, symObjAddr: 0x6A10, symBinAddr: 0x10000981C, symSize: 0x30 }
  - { offsetInCU: 0x12122, offset: 0x12122, size: 0x8, addend: 0x0, symName: __ZN13BallContainer5resetEv, symObjAddr: 0x6A40, symBinAddr: 0x10000984C, symSize: 0x78 }
  - { offsetInCU: 0x12146, offset: 0x12146, size: 0x8, addend: 0x0, symName: __ZN13BallContainer12mainBallDropEv, symObjAddr: 0x6AB8, symBinAddr: 0x1000098C4, symSize: 0xAC }
  - { offsetInCU: 0x1216A, offset: 0x1216A, size: 0x8, addend: 0x0, symName: __ZN4Ball8moveLeftEi, symObjAddr: 0x6B64, symBinAddr: 0x100009970, symSize: 0xD8 }
  - { offsetInCU: 0x121C7, offset: 0x121C7, size: 0x8, addend: 0x0, symName: __ZN4Ball9moveRightEi, symObjAddr: 0x6C3C, symBinAddr: 0x100009A48, symSize: 0xD8 }
  - { offsetInCU: 0x12224, offset: 0x12224, size: 0x8, addend: 0x0, symName: __ZNSt3__16vectorI4BallNS_9allocatorIS1_EEE5clearB8ue170006Ev, symObjAddr: 0x6D14, symBinAddr: 0x100009B20, symSize: 0x44 }
  - { offsetInCU: 0x12257, offset: 0x12257, size: 0x8, addend: 0x0, symName: __ZNKSt3__16vectorI4BallNS_9allocatorIS1_EEE17__annotate_shrinkB8ue170006Em, symObjAddr: 0x6D58, symBinAddr: 0x100009B64, symSize: 0xD0 }
  - { offsetInCU: 0x1228B, offset: 0x1228B, size: 0x8, addend: 0x0, symName: __ZN4Ball4dropEv, symObjAddr: 0x6E28, symBinAddr: 0x100009C34, symSize: 0x20 }
  - { offsetInCU: 0x122AF, offset: 0x122AF, size: 0x8, addend: 0x0, symName: __ZNSt3__16vectorI4BallNS_9allocatorIS1_EEE6insertENS_11__wrap_iterIPKS1_EEOS1_, symObjAddr: 0x6E48, symBinAddr: 0x100009C54, symSize: 0x1B8 }
  - { offsetInCU: 0x12328, offset: 0x12328, size: 0x8, addend: 0x0, symName: __ZNSt3__16vectorI4BallNS_9allocatorIS1_EEE5beginB8ue170006Ev, symObjAddr: 0x7000, symBinAddr: 0x100009E0C, symSize: 0x30 }
  - { offsetInCU: 0x12354, offset: 0x12354, size: 0x8, addend: 0x0, symName: __ZNSt3__111__wrap_iterIPK4BallEC1B8ue170006IPS1_EERKNS0_IT_EEPNS_9enable_ifIXsr14is_convertibleIS7_S3_EE5valueEvE4typeE, symObjAddr: 0x7030, symBinAddr: 0x100009E3C, symSize: 0x3C }
  - { offsetInCU: 0x1239D, offset: 0x1239D, size: 0x8, addend: 0x0, symName: __ZNSt3__16vectorI4BallNS_9allocatorIS1_EEE12__move_rangeEPS1_S5_S5_, symObjAddr: 0x70B4, symBinAddr: 0x100009EC0, symSize: 0x144 }
  - { offsetInCU: 0x1245A, offset: 0x1245A, size: 0x8, addend: 0x0, symName: __ZN4BallaSERKS_, symObjAddr: 0x71F8, symBinAddr: 0x10000A004, symSize: 0x68 }
  - { offsetInCU: 0x12489, offset: 0x12489, size: 0x8, addend: 0x0, symName: __ZNSt3__114__split_bufferI4BallRNS_9allocatorIS1_EEE9push_backEOS1_, symObjAddr: 0x7260, symBinAddr: 0x10000A06C, symSize: 0x268 }
  - { offsetInCU: 0x12501, offset: 0x12501, size: 0x8, addend: 0x0, symName: __ZNSt3__16vectorI4BallNS_9allocatorIS1_EEE11__make_iterB8ue170006EPS1_, symObjAddr: 0x7614, symBinAddr: 0x10000A420, symSize: 0x30 }
  - { offsetInCU: 0x12535, offset: 0x12535, size: 0x8, addend: 0x0, symName: __ZNKSt3__111__wrap_iterIPK4BallE4baseB8ue170006Ev, symObjAddr: 0x7644, symBinAddr: 0x10000A450, symSize: 0x18 }
  - { offsetInCU: 0x1255A, offset: 0x1255A, size: 0x8, addend: 0x0, symName: __ZNKSt3__111__wrap_iterIP4BallE4baseB8ue170006Ev, symObjAddr: 0x765C, symBinAddr: 0x10000A468, symSize: 0x18 }
  - { offsetInCU: 0x125A1, offset: 0x125A1, size: 0x8, addend: 0x0, symName: __ZNKSt3__120__move_backward_loopINS_17_ClassicAlgPolicyEEclB8ue170006IP4BallS5_S5_EENS_4pairIT_T1_EES7_T0_S8_, symObjAddr: 0x7850, symBinAddr: 0x10000A65C, symSize: 0xA4 }
  - { offsetInCU: 0x12627, offset: 0x12627, size: 0x8, addend: 0x0, symName: __ZNSt3__18_IterOpsINS_17_ClassicAlgPolicyEE4nextB8ue170006IP4BallEET_S6_S6_, symObjAddr: 0x79CC, symBinAddr: 0x10000A7D8, symSize: 0x18 }
  - { offsetInCU: 0x1265D, offset: 0x1265D, size: 0x8, addend: 0x0, symName: __ZNSt3__18_IterOpsINS_17_ClassicAlgPolicyEE11__iter_moveB8ue170006IRP4BallEENS_9enable_ifIXsr12is_referenceIDTdeclsr3stdE7declvalIRT_EEEEE5valueEDTclsr3stdE4movedeclsr3stdE7declvalIS9_EEEEE4typeEOS8_, symObjAddr: 0x79E4, symBinAddr: 0x10000A7F0, symSize: 0x28 }
  - { offsetInCU: 0x12689, offset: 0x12689, size: 0x8, addend: 0x0, symName: __ZNSt3__18_IterOpsINS_17_ClassicAlgPolicyEE25__validate_iter_referenceB8ue170006IRP4BallEEvv, symObjAddr: 0x7A0C, symBinAddr: 0x10000A818, symSize: 0x4 }
  - { offsetInCU: 0x126A7, offset: 0x126A7, size: 0x8, addend: 0x0, symName: __ZNSt3__118__unwrap_iter_implIP4BallLb1EE8__unwrapB8ue170006ES2_, symObjAddr: 0x7A10, symBinAddr: 0x10000A81C, symSize: 0x24 }
  - { offsetInCU: 0x126CA, offset: 0x126CA, size: 0x8, addend: 0x0, symName: __ZNSt3__14pairIP4BallS2_EC1B8ue170006ERKS2_S5_, symObjAddr: 0x7A34, symBinAddr: 0x10000A840, symSize: 0x3C }
  - { offsetInCU: 0x1270F, offset: 0x1270F, size: 0x8, addend: 0x0, symName: __ZNSt3__14pairIP4BallS2_EC2B8ue170006ERKS2_S5_, symObjAddr: 0x7A70, symBinAddr: 0x10000A87C, symSize: 0x34 }
  - { offsetInCU: 0x12754, offset: 0x12754, size: 0x8, addend: 0x0, symName: __ZNSt3__118__unwrap_iter_implIP4BallLb1EE8__rewrapB8ue170006ES2_S2_, symObjAddr: 0x7AA4, symBinAddr: 0x10000A8B0, symSize: 0x58 }
  - { offsetInCU: 0x12784, offset: 0x12784, size: 0x8, addend: 0x0, symName: __ZNSt3__114__split_bufferI4BallRNS_9allocatorIS1_EEE18__construct_at_endINS_13move_iteratorIPS1_EEEENS_9enable_ifIXsr31__has_forward_iterator_categoryIT_EE5valueEvE4typeESB_SB_, symObjAddr: 0x7B3C, symBinAddr: 0x10000A948, symSize: 0x60 }
  - { offsetInCU: 0x127D0, offset: 0x127D0, size: 0x8, addend: 0x0, symName: __ZNSt3__113move_iteratorIP4BallEC1B8ue170006ES2_, symObjAddr: 0x7B9C, symBinAddr: 0x10000A9A8, symSize: 0x34 }
  - { offsetInCU: 0x12806, offset: 0x12806, size: 0x8, addend: 0x0, symName: __ZNKSt3__111__move_loopINS_17_ClassicAlgPolicyEEclB8ue170006IP4BallS5_S5_EENS_4pairIT_T1_EES7_T0_S8_, symObjAddr: 0x7D0C, symBinAddr: 0x10000AB18, symSize: 0x90 }
  - { offsetInCU: 0x1286F, offset: 0x1286F, size: 0x8, addend: 0x0, symName: __ZNSt3__114__split_bufferI4BallRNS_9allocatorIS1_EEE28__construct_at_end_with_sizeINS_13move_iteratorIPS1_EEEEvT_m, symObjAddr: 0x7D9C, symBinAddr: 0x10000ABA8, symSize: 0xE4 }
  - { offsetInCU: 0x128D4, offset: 0x128D4, size: 0x8, addend: 0x0, symName: __ZNSt3__114__split_bufferI4BallRNS_9allocatorIS1_EEE21_ConstructTransactionC1B8ue170006EPPS1_m, symObjAddr: 0x7EBC, symBinAddr: 0x10000ACC8, symSize: 0x3C }
  - { offsetInCU: 0x12919, offset: 0x12919, size: 0x8, addend: 0x0, symName: __ZNKSt3__113move_iteratorIP4BallEdeB8ue170006Ev, symObjAddr: 0x7EF8, symBinAddr: 0x10000AD04, symSize: 0x18 }
  - { offsetInCU: 0x1293E, offset: 0x1293E, size: 0x8, addend: 0x0, symName: __ZNSt3__113move_iteratorIP4BallEppB8ue170006Ev, symObjAddr: 0x7F10, symBinAddr: 0x10000AD1C, symSize: 0x20 }
  - { offsetInCU: 0x12963, offset: 0x12963, size: 0x8, addend: 0x0, symName: __ZNSt3__114__split_bufferI4BallRNS_9allocatorIS1_EEE21_ConstructTransactionD1B8ue170006Ev, symObjAddr: 0x7F30, symBinAddr: 0x10000AD3C, symSize: 0x2C }
  - { offsetInCU: 0x1298C, offset: 0x1298C, size: 0x8, addend: 0x0, symName: __ZNSt3__114__split_bufferI4BallRNS_9allocatorIS1_EEE21_ConstructTransactionC2B8ue170006EPPS1_m, symObjAddr: 0x7F5C, symBinAddr: 0x10000AD68, symSize: 0x4C }
  - { offsetInCU: 0x129D1, offset: 0x129D1, size: 0x8, addend: 0x0, symName: __ZNSt3__114__split_bufferI4BallRNS_9allocatorIS1_EEE21_ConstructTransactionD2B8ue170006Ev, symObjAddr: 0x7FA8, symBinAddr: 0x10000ADB4, symSize: 0x20 }
  - { offsetInCU: 0x129FA, offset: 0x129FA, size: 0x8, addend: 0x0, symName: __ZNKSt3__113move_iteratorIP4BallE4baseB8ue170006Ev, symObjAddr: 0x8040, symBinAddr: 0x10000AE4C, symSize: 0x18 }
  - { offsetInCU: 0x12A1F, offset: 0x12A1F, size: 0x8, addend: 0x0, symName: __ZNSt3__113move_iteratorIP4BallEC2B8ue170006ES2_, symObjAddr: 0x8058, symBinAddr: 0x10000AE64, symSize: 0x20 }
  - { offsetInCU: 0x12A56, offset: 0x12A56, size: 0x8, addend: 0x0, symName: __ZNSt3__129_AllocatorDestroyRangeReverseINS_9allocatorI4BallEEPS2_EC1B8ue170006ERS3_RS4_S7_, symObjAddr: 0x81C0, symBinAddr: 0x10000AFCC, symSize: 0x44 }
  - { offsetInCU: 0x12AAC, offset: 0x12AAC, size: 0x8, addend: 0x0, symName: __ZNSt3__128__exception_guard_exceptionsINS_29_AllocatorDestroyRangeReverseINS_9allocatorI4BallEEPS3_EEE10__completeB8ue170006Ev, symObjAddr: 0x8204, symBinAddr: 0x10000B010, symSize: 0x1C }
  - { offsetInCU: 0x12AD1, offset: 0x12AD1, size: 0x8, addend: 0x0, symName: __ZNSt3__128__exception_guard_exceptionsINS_29_AllocatorDestroyRangeReverseINS_9allocatorI4BallEEPS3_EEED1B8ue170006Ev, symObjAddr: 0x8220, symBinAddr: 0x10000B02C, symSize: 0x2C }
  - { offsetInCU: 0x12AFA, offset: 0x12AFA, size: 0x8, addend: 0x0, symName: __ZNSt3__128__exception_guard_exceptionsINS_29_AllocatorDestroyRangeReverseINS_9allocatorI4BallEEPS3_EEEC1B8ue170006ES6_, symObjAddr: 0x824C, symBinAddr: 0x10000B058, symSize: 0x34 }
  - { offsetInCU: 0x12B32, offset: 0x12B32, size: 0x8, addend: 0x0, symName: __ZNSt3__128__exception_guard_exceptionsINS_29_AllocatorDestroyRangeReverseINS_9allocatorI4BallEEPS3_EEEC2B8ue170006ES6_, symObjAddr: 0x8280, symBinAddr: 0x10000B08C, symSize: 0x30 }
  - { offsetInCU: 0x12B6A, offset: 0x12B6A, size: 0x8, addend: 0x0, symName: __ZNSt3__129_AllocatorDestroyRangeReverseINS_9allocatorI4BallEEPS2_EC2B8ue170006ERS3_RS4_S7_, symObjAddr: 0x82B0, symBinAddr: 0x10000B0BC, symSize: 0x38 }
  - { offsetInCU: 0x12BC0, offset: 0x12BC0, size: 0x8, addend: 0x0, symName: __ZNSt3__128__exception_guard_exceptionsINS_29_AllocatorDestroyRangeReverseINS_9allocatorI4BallEEPS3_EEED2B8ue170006Ev, symObjAddr: 0x82E8, symBinAddr: 0x10000B0F4, symSize: 0x48 }
  - { offsetInCU: 0x12BE8, offset: 0x12BE8, size: 0x8, addend: 0x0, symName: __ZNKSt3__129_AllocatorDestroyRangeReverseINS_9allocatorI4BallEEPS2_EclB8ue170006Ev, symObjAddr: 0x8330, symBinAddr: 0x10000B13C, symSize: 0x68 }
  - { offsetInCU: 0x12C0D, offset: 0x12C0D, size: 0x8, addend: 0x0, symName: __ZNSt3__111__wrap_iterIP4BallEC1B8ue170006ES2_, symObjAddr: 0x8408, symBinAddr: 0x10000B214, symSize: 0x34 }
  - { offsetInCU: 0x12C44, offset: 0x12C44, size: 0x8, addend: 0x0, symName: __ZNSt3__111__wrap_iterIP4BallEC2B8ue170006ES2_, symObjAddr: 0x843C, symBinAddr: 0x10000B248, symSize: 0x20 }
  - { offsetInCU: 0x12C7B, offset: 0x12C7B, size: 0x8, addend: 0x0, symName: __ZNSt3__111__wrap_iterIPK4BallEC2B8ue170006IPS1_EERKNS0_IT_EEPNS_9enable_ifIXsr14is_convertibleIS7_S3_EE5valueEvE4typeE, symObjAddr: 0x845C, symBinAddr: 0x10000B268, symSize: 0x40 }
  - { offsetInCU: 0x12CC5, offset: 0x12CC5, size: 0x8, addend: 0x0, symName: __ZN6ScreenD2Ev, symObjAddr: 0x849C, symBinAddr: 0x10000B2A8, symSize: 0x30 }
...
